(lp1
F99120.290913330755
aF390412.96666666673
aF389092.83333333337
aF317103.66666666669
aF77895.733747526639
aF227508.03333333335
aF37384.964836307474
aF227555.85833333337
aF62029.244063926351
aF351663.16666666669
aF279030.42499999993
aF47796.903867864152
aF196231.85952380957
aF46867.508676046171
aF158286.49141414138
aF356681.23333333334
aF57475.213275613292
aF75460.705787921223
aF79904.830626399751
aF125781.42642863675
aF89720.969408081844
aF87590.395331384294
aF60842.978336259512
aF188573.66221670486
aF108286.84925638088
aF67230.274507436989
aF136656.10128066377
aF66595.150493460766
aF139629.86670755711
aF62571.337162184231
aF152383.62344877349
aF94096.799556579426
aF68961.57829264985
aF61958.854989827567
aF69302.976334776307
aF184506.3018674136
aF124052.75758636786
aF40349.448464444053
aF79051.616568906349
aF80758.926703851685
aF110690.67698701554
aF41518.780772005775
aF108268.83138528137
aF55663.147420634908
aF107606.86785714288
aF50029.830700083367
aF105691.54535872983
aF75656.181608669096
aF35856.956385281381
aF93682.337672187889
aF74846.924439449445
aF58568.367143652787
aF63428.69433621932
aF74118.548005870223
aF31816.090732435772
aF60417.07954267953
aF60601.943963389574
aF52656.071202163825
aF67802.684685739106
aF60464.055847991876
aF9526.7166666666672
aF47062.946153846147
aF20745.62352056157
aF30332.261904761901
aF15202.183333333336
aF29390.796787753323
aF38499.000000000007
aF24701.18452380953
aF174040.45763125774
aF36060.581645836362
aF29460.100000000002
aF143280.44325396829
aF29110.425216450218
aF23044.028571428586
aF44211.41190476191
aF36105.107070707068
aF43328.341666666645
aF46343.845238095237
aF30988.363636363632
aF21233.200000000004
aF35766.445238095243
aF32133.096428571425
aF65337.900000000001
aF43844.680519480527
aF343870.94404761918
aF270191.00198412704
aF190619.41666666669
aF196100.04285714286
aF61570.94999999999
aF36189.105330780345
aF127165.56190476191
aF35153.522488296025
aF50320.060429847959
aF54431.056531050679
aF45063.768131868135
aF44573.497420634914
aF113677.77261904765
aF65007.349483849452
aF90734.181786269313
aF76274.693181818147
aF103465.06850649351
aF57219.003712953709
aF43300.569949494944
aF49677.348299102348
aF56909.451334776306
aF49345.904710567236
aF45081.516041638097
aF46100.811596736625
aF76406.348684648692
aF47043.691666666651
aF44262.280716505731
aF52735.760089910065
aF60215.506973581956
aF70777.283172383177
aF42353.52231510319
aF54809.410897435911
aF89617.156057831089
aF72874.861976911969
aF50566.023174701135
aF62323.070600641171
aF106365.84880952384
aF74139.485980685989
aF72348.4483746646
aF42803.294311244317
aF488473.50000000006
aF499298.91666666669
aF59735.220095562101
aF358093.90000000002
aF92389.223270729621
aF386327.09999999998
aF139895.75793650796
aF236473.03571428568
aF584228.34523809515
aF122783.66369741372
aF287615.28333333333
aF382912.41620879114
aF175769.84458319447
aF223446.90314323353
aF204980.92499999999
aF177755.37829670336
aF379523.84960317472
aF120372.94976967481
aF182398.4631868132
aF133682.61367521368
aF86500.138564213601
aF252779.23829365079
aF183330.94796176051
aF249946.96468253969
aF93057.569104512717
aF208228.84347590458
aF116359.6965049141
aF40102.796826170445
aF259614.16746216739
aF146649.93491294514
aF72032.84922522452
aF122619.94704445884
aF76887.291307699124
aF123996.07229853472
aF132929.52526308398
aF80472.834612297374
aF102223.25326161011
aF112990.5019312387
aF158030.08880841383
aF105565.89684751528
aF133871.94778102596
aF70305.007515866644
aF70606.618155141899
aF129807.69300854379
aF156737.82883113364
aF94926.105943623668
aF89545.358851193538
aF103197.36196847061
aF82339.836157217476
aF128311.77083105422
aF97594.724343559516
aF191976.9395304858
aF93348.965493166892
aF65762.486673364983
aF101161.75021065531
aF166585.4859626485
aF38606.841695804193
aF98747.332510237175
aF116847.42574668708
aF106978.0985140634
aF72105.072094513336
aF62078.289240377373
aF51437.110714103721
aF77258.109216955316
aF157725.16633717588
aF71908.279998423008
aF85896.962053017502
aF85320.485564284827
aF57278.569848161947
aF97524.060821857885
aF70410.64292875398
aF95972.573385682932
aF69065.891890050101
aF82301.62964313988
aF55632.903807031107
aF126110.29115912144
aF62562.466496849032
aF115049.42313529988
aF77927.283379599976
aF42464.949012461293
aF46081.98346650583
aF95929.115461070513
aF76538.561430354181
aF64165.822045103152
aF97639.183788147799
aF28887.536050360315
aF74451.353587146397
aF47283.889750717695
aF67023.624573469278
aF80452.897697291803
aF62558.915479781637
aF69018.571649291844
aF84312.669415987039
aF120488.12199358564
aF80120.795739794121
aF60518.515084227794
aF68770.530932097259
aF57337.690255326961
aF182746.17643405061
aF117512.68498541309
aF308715
aF310650.66666666669
aF208802.02380952379
aF230918.85238095239
aF237206.73809523811
aF310874.78809523804
aF582897.81666666677
aF85609.316666666666
aF252847.77857142859
aF150400.63105228101
aF118598.09529637027
aF274779.7829545454
aF76843.841273677288
aF61230.297064152597
aF153882.9816701808
aF76833.335775379383
aF89380.745924783885
aF67050.617489291777
aF62653.853911264188
aF255037.32142857142
aF61562.08251374455
aF53895.77205100454
aF305134.60925324674
aF68543.648364135865
aF63730.019288545911
aF102176.86605461537
aF127231.11906740606
aF57784.827357180133
aF103736.33331390831
aF125631.70116688868
aF228580.87644300138
aF124501.15180652686
aF219813.45384615386
aF102076.76558191804
aF45984.313472638518
aF85079.011729147998
aF158880.41117216114
aF82581.54956811684
aF88810.05305666558
aF79388.702874423267
aF34806.128807711873
aF120512.22471703133
aF58078.388586778718
aF47829.606423347941
aF129983.99457922256
aF69076.697202287309
aF132864.5759873426
aF60031.972886635369
aF68313.991484723403
aF67956.394230545629
aF70016.731538858279
aF76636.655519480526
aF42740.794304495837
aF215848.91656260414
aF192930.51863275611
aF108839.98531329785
aF91974.829734826635
aF61118.042346742521
aF87110.764215916948
aF54441.028121727832
aF59553.847470584988
aF92253.786273127436
aF57681.168003032384
aF129671.18439060936
aF46895.098110223124
aF174356.38782467533
aF45258.114536632944
aF54747.250183982665
aF84882.492602739148
aF36227.748683067875
aF64821.42715062714
aF352834.51666666666
aF248293.16666666666
aF69705.433834684372
aF280430.29999999999
aF223688.26666666669
aF261845.5523809524
aF130087.0784072739
aF58420.198507027781
aF66363.597162967752
aF48832.13022727616
aF83484.215479373568
aF77755.046423511114
aF95710.773000930451
aF89881.750013875004
aF70973.242972518376
aF67865.857082832648
aF81052.084995017067
aF57645.614682539701
aF88282.795930729044
aF134586.75833333336
aF115974.45279997778
aF55748.885876383763
aF78856.815318015331
aF108060.66846625593
aF231975.63095238098
aF100591.41470196474
aF66376.907624725995
aF143970.64166666663
aF150864.97658730159
aF98316.484000721495
aF42248.030257242768
aF84005.424025943983
aF66331.267833684193
aF97318.087860253625
aF47327.847834603599
aF119552.03826394616
aF36662.602922077909
aF100262.53125485628
aF81155.865740656169
aF84013.021340755848
aF68684.655858196144
aF133984.44761904763
aF87308.63166740688
aF67550.930278871441
aF66949.089982811303
aF112461.32165669728
aF103393.5114945512
aF52299.272531870316
aF73926.919718954887
aF57286.410847606494
aF67252.850975413428
aF86196.142062104584
aF68086.079378906114
aF81495.115752221609
aF113334.38938217046
aF74549.531511870548
aF52293.568012542986
aF98313.628324453341
aF36141.856526806485
aF196593.14999999999
aF37058.622186147193
aF411729.50000000006
aF62189.421028971024
aF135306.26666666669
aF47427.32173937175
aF54690.406080031091
aF187014.37261904762
aF179684.96349206351
aF58986.66858748551
aF116778.51190476191
aF41186.278125602461
aF55092.989323688016
aF95645.57460317458
aF71356.77529530153
aF58963.374843756479
aF56727.682475857488
aF37349.333816110746
aF47934.165295815284
aF94549.283333333326
aF57252.786002886001
aF175116.22857142857
aF118693.25992063494
aF54078.058719569941
aF69599.290476190479
aF53887.504255385116
aF45848.191333082119
aF56219.390248749078
aF73354.259285236607
aF57823.407063769577
aF43270.229329004345
aF55691.407435400848
aF87713.739257234061
aF77703.176298701292
aF89933.378826728876
aF55347.789825744418
aF42746.096786692848
aF58964.18519273612
aF58137.191048748566
aF58177.333267931775
aF79194.911807490789
aF40919.530424473196
aF70637.390505108982
aF106154.57363752808
aF42551.758333333339
aF78941.251750299067
aF75237.811111111136
aF44861.376207126181
aF47565.106718573807
aF99752.979563492045
aF43104.394874569851
aF69596.985353535332
aF53666.675904650896
aF184227.83333333331
aF161320.74999999997
aF371137.60000000003
aF73905.118553015578
aF29759.856854256836
aF28988.814532689536
aF40387.474198187432
aF156412.94090909092
aF52586.12718876038
aF183356.75714285715
aF135364.01829004328
aF88062.21093073595
aF49707.229030365088
aF113837.25952380952
aF212679.375
aF56566.196464646462
aF92646.961948345779
aF82189.746825396855
aF66877.317296456269
aF49299.775071089032
aF70827.388436563429
aF50389.947100122117
aF71426.446464646477
aF59171.768958655724
aF72347.454301254314
aF25334.557905982914
aF55700.279545454519
aF56813.198268887958
aF27777.384351759345
aF49546.550382950394
aF65472.017365640917
aF91389.304803529812
aF57495.08474025975
aF38452.401637496485
aF195433.53571428568
aF64422.005708180695
aF73102.817057942055
aF56122.621752808584
aF66392.347873844119
aF169079.62738095238
aF225994.53571428574
aF124337.68333333333
aF49424.487579087567
aF61713.053194028245
aF73972.913907040522
aF154518.58333333331
aF52459.700307209103
aF59620.286116399104
aF67962.53888888887
aF46012.644513819527
aF58490.941999667019
aF66363.908333333326
aF47066.596886021616
aF40086.748942723934
aF32105.426995226982
aF91160.484235209224
aF58540.462554112542
aF62726.375000000022
aF51049.250424575424
aF36857.15636863136
aF46055.607689532691
aF81165.02423409927
aF56496.857995267448
aF66832.584145021625
aF37490.245098434425
aF42997.411871461882
aF47565.650449550471
aF64527.816666666688
aF73230.188921978479
aF83088.111904761899
aF56216.900210900203
aF70550.378354978326
aF70153.593359092716
aF69190.407994372566
aF233506.50000000003
aF372884.77222222224
aF40872.268194713797
aF125176.19285714284
aF84975.0922077922
aF260798.82142857145
aF67547.145013186848
aF103422.55277777778
aF179080.63333333336
aF79547.928066378052
aF76196.916747944968
aF38934.304761904779
aF51387.540132090144
aF56306.548573635715
aF61081.94703082354
aF149491.94285714286
aF41230.54529498281
aF50489.354301086743
aF123349.17297979802
aF80345.380555555559
aF47893.6916449048
aF59807.440548340528
aF39627.547904872918
aF72309.266169941126
aF55471.754813169275
aF67671.59532710757
aF62437.966269841323
aF51103.662921800445
aF41588.370652958154
aF54193.618702294443
aF52762.117388167382
aF48493.583794224352
aF121750.02121212121
aF81219.795724680851
aF57090.349726881315
aF46925.077994228006
aF73435.116682223044
aF52074.779225693441
aF48830.056385281387
aF48089.955506993021
aF46103.105354367872
aF56500.316298102523
aF56095.218305305803
aF95189.386724386743
aF77614.232034632034
aF64439.969153069127
aF72126.740956347523
aF66814.742230576419
aF61374.210810023353
aF94388.333333333328
aF223509.83333333334
aF59295.346464646464
aF92677.363997114007
aF66796.344569319554
aF181559.61825396828
aF158589.48333333331
aF49505.675045998039
aF51696.782366098822
aF70566.4771569117
aF167990.82777777774
aF45131.393584193582
aF64801.006738131997
aF108003.04523809523
aF49049.381949994466
aF64966.834391696219
aF82463.460237715524
aF64603.415409367066
aF59718.69085734526
aF121373.58333333333
aF93825.295997041336
aF54336.344972133142
aF55648.314485514471
aF52770.981160652242
aF56274.626497114019
aF45455.426842163681
aF49679.915977194454
aF56606.279329004334
aF42550.470761183242
aF42346.670835047313
aF46689.927762296204
aF50370.307606274022
aF46059.232536843112
aF49916.37064879563
aF48525.741329039927
aF56876.653240472959
aF69045.597810084626
aF45317.520346320336
aF51816.097428788155
aF88668.655565594527
aF165345.22976190477
aF89356.944270943553
aF664551.89999999991
aF91502.958268305767
aF212838.69800738478
aF186063.66006493513
aF476022.37500000006
aF219024.18253968252
aF154533.81540404039
aF221345.26749639251
aF230295.1398989899
aF161411.55801282052
aF106686.61085858586
aF73819.619152201631
aF196569.40728715726
aF160882.79581807079
aF151839.09362426787
aF122499.41807359304
aF163115.67169543551
aF128478.1119047619
aF50168.942795564406
aF91129.079735787076
aF67371.502405824125
aF96789.476284247416
aF158605.3858915373
aF142195.51872294379
aF109515.3760503338
aF192115.11831501831
aF73070.722087566159
aF136623.67126819259
aF82908.587963425511
aF138353.52806810039
aF79470.080750926427
aF144712.03451199815
aF79977.132387955236
aF78768.762689855968
aF98295.855199332815
aF112994.83806193812
aF82143.534097807205
aF143968.93472360965
aF79775.805545212541
aF63625.671704319051
aF39285.459412057658
aF127560.89683941382
aF58024.200369738996
aF90483.930676926742
aF71944.609182772445
aF105624.09903444257
aF88190.45166578528
aF162512.75543394504
aF103132.82447912058
aF110884.07954380315
aF97350.548563691176
aF116008.00331571134
aF87650.828534500513
aF123869.623015873
aF90756.407535415041
aF108441.16370023681
aF76515.409691087727
aF101191.76223433434
aF118999.44449994448
aF49098.237948162947
aF49604.82513842966
aF98421.933352733933
aF97578.728800210825
aF67916.868749469519
aF107429.65235423116
aF93640.151479076463
aF66141.563519087169
aF96169.085221112735
aF54558.745498635282
aF95198.119537275241
aF92890.053585385205
aF98021.158410076649
aF71574.385001295712
aF87778.150511636399
aF74901.057159833668
aF86513.230401542925
aF94176.71690425514
aF83574.835557776925
aF107598.36354330988
aF111056.5508606317
aF181310.34153286315
aF97327.903083691723
aF75074.556642052135
aF89168.714134819718
aF80472.25403550647
aF121112.51337542203
aF79273.370769551635
aF73923.111081260315
aF56636.865243465625
aF96397.550445902554
aF75948.580665803311
aF79047.735951784678
aF71181.851698056824
aF36911.810025062667
aF47564.9845238095
aF38857.957972582997
aF118842.44999999998
aF38478.696031746033
aF30130.819505494503
aF87851.383333333317
aF43189.284523809511
aF25296.930357142875
aF11098.566666666662
aF58605.448204725602
aF54150.049576240744
aF47418.817921784095
aF43877.803316128309
aF41534.91863691865
aF81980.692857142814
aF46586.133716838725
aF236801.5047619048
aF128969.21666666666
aF117896.01666666666
aF282378.23333333328
aF70244.955266955236
aF82665.01230158734
aF41857.124297924289
aF162097.3666666667
aF171783.80476190482
aF45006.239405039436
aF56614.057240537986
aF80369.749913974985
aF71324.724877899876
aF78111.322016872044
aF82822.163492063482
aF52685.463084138079
aF55140.595772210247
aF36275.6445970696
aF56797.969444444425
aF71012.890656243748
aF71732.387890901649
aF46252.939066781175
aF57424.557651335621
aF64556.403678674265
aF56568.695531762423
aF62345.909920634927
aF116590.53452380953
aF51116.59750797625
aF17830.498962148955
aF41899.658336108339
aF75782.488005595704
aF49056.999902874923
aF55601.658369408375
aF31259.667460317462
aF45965.947546897558
aF61829.666666666664
aF59528.84678932184
aF89311.249999999985
aF100741.03571428571
aF44081.622069597048
aF17245.854761904764
aF31701.56424963925
aF44803.430663780651
aF54978.516666666663
aF57969.580873293358
aF35245.601529026542
aF53555.865789765805
aF36630.267526917538
aF25707.633225108239
aF75982.507936507915
aF34279.015129315121
aF110070.76977892253
aF55842.524358596318
aF83213.424052581453
aF61877.631001517402
aF59416.629446755949
aF69290.749016725982
aF71780.021524227428
aF292517.82836052839
aF313566.64166666672
aF63938.905394931862
aF298691.91547619051
aF62222.597299595793
aF213406.03055555557
aF60912.219409756901
aF83824.168644509118
aF63048.538519758506
aF76950.227148260208
aF40315.36468923233
aF42651.606689878754
aF77929.735118793105
aF138437.14873737373
aF126041.89653124652
aF175708.60154794037
aF49177.46855542119
aF69070.351627262091
aF80536.598729290228
aF130129.47142857143
aF122168.7646742963
aF68043.698729736017
aF38413.283861187119
aF178249.27023911767
aF275160.96904761909
aF78063.175949317272
aF143351.94623441703
aF67253.592909488259
aF71587.575853790753
aF120289.94519476058
aF177007.78531746031
aF267513.67976190476
aF43517.201159208038
aF78532.259489893186
aF51557.631791909502
aF82192.707521645003
aF59878.749244056591
aF95585.137421838444
aF94672.885564276628
aF110660.84371835891
aF80169.657873375996
aF59405.792063492067
aF104029.22830013985
aF53470.14702094379
aF120071.5105355429
aF64735.679283869722
aF124252.47979797983
aF96017.67409058327
aF96944.592705905205
aF109864.81810966809
aF115321.67773835642
aF32278.0899128649
aF94045.821178821163
aF66807.642739008748
aF110794.83735986237
aF97434.874245789324
aF58259.906661639012
aF122808.83087158453
aF47198.978804528801
aF63816.081656540802
aF49242.974614274623
aF44432.973135949025
aF65098.363766898656
aF64457.201018095373
aF97566.589547164273
aF289074.54517982021
aF109784.60663420839
aF67280.319339443697
aF86488.726497113967
aF25098.499999999996
aF20182.076587301588
aF22907.104761904764
aF34809.616666666669
aF26182.719932844931
aF76710.926190476195
aF34336.75
aF37394.799999999996
aF19168.881168831165
aF65876.219877344862
aF43835.804889773979
aF41860.907163669683
aF136651.33214285711
aF59348.303163065008
aF43379.471067821061
aF247248.48712121215
aF68167.600921420555
aF89579.299999999974
aF40844.159758297254
aF60898.575793650794
aF47210.322420634919
aF45334.746586746594
aF82672.319444444423
aF82994.354292929303
aF45101.215503940541
aF65586.530952380926
aF46750.055880230895
aF57610.439785214803
aF70544.010528360523
aF95801.916666666672
aF60593.081697478556
aF52545.501322288867
aF80086.936677211677
aF25364.069047619047
aF83462.120057720065
aF50556.643781218787
aF31105.990854978354
aF49163.470740833283
aF55217.891125541137
aF62279.18333333332
aF39687.457828282815
aF59166.425468975467
aF56545.094408369398
aF56341.175893550957
aF49541.722945192043
aF33927.334572649583
aF69266.324463183075
aF75999.35678210677
aF22184.905591630577
aF98755.045238095234
aF119606.34999999999
aF77240.057968566529
aF167222.76666666666
aF56416.887157287143
aF201932.03636363632
aF61578.793488095165
aF53402.166666666679
aF89735.666666666628
aF57703.148415930933
aF84826.897402597417
aF68392.840115440093
aF55414.434955161392
aF37275.970129870111
aF38063.157419764153
aF60939.138492063503
aF53062.818213629529
aF62093.439686676407
aF46694.163492063497
aF47633.154164183798
aF64613.373556998566
aF52649.268586198705
aF49792.715039024421
aF54682.093709068708
aF57401.808189033203
aF58665.66063439328
aF58729.537618753769
aF87325.994300144303
aF143836.76060606056
aF74456.19791042291
aF155976.53214285712
aF58490.737456255483
aF67497.137346395451
aF108795.51190476191
aF86822.094047619044
aF60651.33063325558
aF28307.228968253967
aF52761.330158730161
aF51263.684873623097
aF45634.607828282838
aF48578.739234839872
aF108664.63333333335
aF50314.230952380945
aF35133.228568653569
aF38876.99642857143
aF74636.616666666669
aF48726.732069453828
aF47372.900140064638
aF54035.216666666674
aF51934.167460317462
aF38466.895634920642
aF38033.002380952385
aF29601.245565545549
aF29080.243326118325
aF47219.360822510833
aF45332.631962481952
aF32124.418650793657
aF31288.04199134199
aF40536.687393162385
aF35779.194630369631
aF125741.86071428572
aF21865.885714285716
aF49857.916429663375
aF64999.940259740259
aF45232.976050338562
aF57395.770823620835
aF59754.970550745551
aF79947.815115440113
aF55882.531130928888
aF53011.960409230174
aF143372.70476190478
aF75180.111904761885
aF48469.308333333327
aF54584.876154401165
aF82460.838399771194
aF96601.05584415581
aF97595.550000000003
aF60650.280555555568
aF63750.373096508702
aF45135.106990231987
aF34081.843267843258
aF90080.682600732602
aF58855.743645834191
aF70574.802272727276
aF59072.095412798713
aF67926.01976276646
aF63019.548015873028
aF83315.524891774869
aF65751.86521302542
aF83747.151459651432
aF32316.16486013987
aF145356.8347041847
aF74821.01633505385
aF57481.052315086861
aF36853.18802308802
aF33823.680158730167
aF67780.815963203495
aF53875.95141547051
aF116442.97341269841
aF75127.625198412716
aF63893.384120995674
aF78120.420463922346
aF50713.451948051967
aF56035.680111555084
aF53601.395743145717
aF31111.482539682536
aF37224.70656843156
aF34388.647222222222
aF38179.764599289651
aF59517.833333333336
aF39698.505585934538
aF92386.516666666677
aF98758.527777777752
aF57727.616161616163
aF47481.299999999996
aF46158.365476190462
aF55506.886049988003
aF34675.27430624931
aF26821.362296037285
aF52001.088385225907
aF52379.32534834445
aF67795.948795648757
aF32816.986416524662
aF99413.738888888853
aF49779.78023088022
aF50718.994810744822
aF37498.890506715506
aF46351.820634920674
aF35912.465848040847
aF70963.324603174609
aF44476.574206349207
aF68691.726190476184
aF67225.416666666657
aF54926.05238095238
aF30603.047802197812
aF26119.620707070702
aF43242.421825396836
aF46843.345479934367
aF36392.731733836328
aF29735.252380952388
aF30871.527777777777
aF38604.55464812967
aF64418.533333333333
aF40702.863095238099
aF32843.915458071351
aF12940.133333333335
aF33640.205344655355
aF37264.126948051948
aF36306.474242424236
aF47059.98333333333
aF56422.916666666664
aF42220.75364635366
aF43218.029834054832
aF37167.656746031746
aF26384.596320346318
aF29522.657215007217
aF51007.006349206342
aF37186.431060606068
aF24767.799999999996
aF43710.212248862248
aF47905.451660615559
aF31779.82640415139
aF44340.712451437452
aF44234.262481962469
aF30709.578174603179
aF54921.525834704495
aF31018.792518592509
aF118747.61071428574
aF112518.60000000001
aF48466.133849483856
aF34117.137186424676
aF71150.685714285719
aF85442.724603174589
aF43025.94761904762
aF23435.866666666661
aF85068.741666666654
aF93397.416666666686
aF56666.810067710052
aF44648.518456543483
aF49731.21666666666
aF42568.315123112196
aF43974.085423348588
aF60825.30317460317
aF51657.194505972962
aF69322.884920634911
aF32574.983261183217
aF54887.169766344756
aF38740.148259831956
aF41554.058333333334
aF40084.428288704788
aF106075.72500000002
aF46712.498484848533
aF40286.637012987034
aF63519.083333333321
aF36197.318362193371
aF39036.2761589191
aF61821.514285714278
aF36420.438528138518
aF47309.419444444451
aF34391.882600732606
aF46659.157539682528
aF39326.594047619059
aF31474.148051948057
aF33874.086904761891
aF46494.384523809531
aF47336.154761904749
aF56400.916269841269
aF62600.447222222232
aF32634.091101953607
aF46086.247150072166
aF55257.508802308825
aF29568.163888888888
aF33895.107936507942
aF38344.656990941228
aF29024.342550505044
aF51806.828571428567
aF27635.597619047599
aF66312.25
aF49814.235714285722
aF21191.107142857141
aF37656.58231898817
aF59480.053968253967
aF46460.702380952382
aF33472.163095238095
aF33829.011741118346
aF46848.441883116866
aF40099.075793650816
aF36063.876926418379
aF55020.197222222218
aF63166.370093795093
aF68870.747571818167
aF37566.884920634904
aF63348.920228007286
aF51673.352664002654
aF135825.56666666665
aF159208.56666666665
aF162437.01666666663
aF37697.514267676786
aF122454.66666666667
aF32790.954329004329
aF58585.64443928955
aF102667.58333333331
aF72317.939560439583
aF37594.856654456642
aF43849.177654290143
aF38913.090415140417
aF46915.876984126975
aF50076.601454101467
aF114744.16587301588
aF64233.943722943717
aF60523.76944444445
aF81324.514538239571
aF69171.689158989175
aF34001.036356617245
aF38191.416071428575
aF89830.00476190474
aF58858.239679700811
aF74404.264285714264
aF74339.697967718515
aF24616.663156288163
aF77372.726190476213
aF57531.540840327951
aF72380.664937839945
aF73957.149525229659
aF67155.548561242671
aF70347.416992729515
aF61082.476732659212
aF60112.169524511432
aF48155.565483209604
aF102177.36666666664
aF129436.42380952381
aF50261.699489154664
aF55950.246285821981
aF61566.467965367956
aF51705.014253099107
aF85185.167857142893
aF171786.42716450215
aF51293.124798929435
aF71269.853363303351
aF59036.275511988024
aF58930.718240827817
aF135734.38333333336
aF49487.218622422595
aF78604.711471861461
aF136729.28770118771
aF89376.382034632014
aF60900.811590207173
aF44602.715584415579
aF46033.480404399532
aF76781.396658896629
aF51438.379357978629
aF96319.106637806661
aF66261.163371731775
aF92649.540176490162
aF53114.913162141558
aF54979.593262048395
aF179635.9455182073
aF48064.237598675827
aF49004.502814551917
aF50959.95879504484
aF95317.189285714267
aF124195.86075036079
aF67113.923004305747
aF50996.833393553083
aF124881.50551948055
aF40348.288575476807
aF65661.695969845503
aF73896.853428597547
aF103684.28773448773
aF67488.285214441014
aF59473.008956729536
aF26919.778823953828
aF65503.743469531299
aF36194.469977081739
aF66049.694444444409
aF21373.691089466094
aF38169.471833721844
aF45096.345634920646
aF36211.898845016993
aF63517.964285714283
aF28842.501739196483
aF45907.871184371215
aF41285.536507936515
aF62959.419444444458
aF32662.848412698419
aF41832.119691419692
aF30033.496428571427
aF37896.999463118562
aF34287.142460317475
aF34697.893253968265
aF39358.670851336479
aF36221.233165226586
aF126463.44999999998
aF87078.140476190441
aF40162.039372945903
aF36878.110880544584
aF40450.819267996987
aF61599.013095238086
aF35647.501678876681
aF40411.091880341875
aF63733.639285714286
aF29373.055624568664
aF32707.362261186532
aF40720.796428571433
aF18734.196428571431
aF61139.77806640479
aF25903.751190476192
aF39669.700772838289
aF51202.620129870142
aF45062.47896825397
aF77892.953647741117
aF63870.219397634552
aF69809.253607503604
aF52779.209469696973
aF68693.216666666645
aF56758.719165508832
aF39625.148053253935
aF73923.071428571449
aF40493.230489101545
aF43169.323015873073
aF35353.744144744152
aF52830.562753912767
aF75547.286630036615
aF42064.066497391526
aF72421.688095238103
aF70259.169047619056
aF31552.192467663048
aF89097.540079365077
aF79997.272222222207
aF46254.027777777781
aF36352.78373015875
aF56822.467965367992
aF54522.28809523808
aF74454.940476190517
aF51905.826190476182
aF62740.7143967144
aF37708.61578699082
aF40320.684523809541
aF67113.616666666669
aF57532.068643293402
aF40238.776190476186
aF29286.859523809544
aF26488.967857142874
aF47678.958333333343
aF37809.222057582949
aF47392.698390358681
aF47492.99484126985
aF43245.785714285717
aF67368.166666666642
aF60205.879581529589
aF32079.62838827839
aF41269.635232577915
aF54496.199999999997
aF62642.829761904752
aF71035.515404040401
aF37533.650088757495
aF40283.63560328562
aF60954.275000000016
aF28065.707142857129
aF25587.906227106221
aF32798.941666666666
aF29287.456697877293
aF30512.997351551956
aF34218.25
aF21241.295665445668
aF34810.166666666672
aF38656.799999999996
aF26047.676286621863
aF37392.952380952389
aF26030.650000000001
aF42588.115722610732
aF23034.505646692487
aF19403.02667887666
aF69672.516666666677
aF92070.816666666651
aF26285.433333333338
aF30634.729891268868
aF34985.21309523809
aF43221.140873015909
aF30125.413540260917
aF54133.931523215331
aF51468.844552669543
aF53315.406273376371
aF63896.498520923538
aF65118.328411281691
aF92231.898425396488
aF54892.997457440244
aF77338.640582117543
aF50257.714045676563
aF185465.15714285712
aF52298.862626262613
aF165026.48333333334
aF43750.058328924562
aF61845.25357142857
aF21429.239285714284
aF63658.316919191937
aF76075.111879786898
aF57967.532724880257
aF50138.445467441088
aF19957.622619047619
aF75595.643759018727
aF81995.038492063512
aF89939.560602137368
aF57054.441441891446
aF99055.784523809518
aF28463.841269841272
aF66708.495914053317
aF58878.787686986252
aF47040.760536685535
aF74249.55357142858
aF73419.786684149178
aF75710.051068376037
aF69303.481862581815
aF57552.564807496427
aF84736.539898989926
aF35305.66190476191
aF25019.328571428567
aF29007.225524475518
aF13796.4
aF33057.298073038066
aF32050.570938375342
aF38726.589682539678
aF21167.757142857128
aF49335.547643467653
aF23495.150000000001
aF44012.203049822463
aF22328.069047619047
aF23389.705952380944
aF39021.966666666674
aF35277.094841269834
aF33096.287806637818
aF41066.646339333172
aF46608.916666666664
aF33216.783333333326
aF66976.666666666672
aF46504.799999999996
aF34463.012229437227
aF24378.300000000007
aF47028.285714285696
aF35960.692177267185
aF50261.645084871641
aF34185.695274170292
aF31576.722619047621
aF44006.868309085192
aF30243.434523809523
aF42700.33492063493
aF21377.300000000003
aF36623.5011904762
aF58690.61904761906
aF36981.790476190472
aF29528.499206349206
aF41533.90567210567
aF41540.942063492046
aF25415.742796092789
aF16765.111904761907
aF81317.191666666666
aF39615.883333333331
aF29526.599999999999
aF33538.201769896754
aF41406.94571181426
aF30213.70255381873
aF27320.773809523813
aF39350.158333375926
aF61027.591666666674
aF37060.360714285729
aF20641.126587301587
aF28600.68286435787
aF57931.814285714281
aF24254.500000000004
aF23640.933333333331
aF35235.576190476175
aF30285.803391053392
aF26472.108477633476
aF30573.701984126998
aF27056.702930402927
aF29907.655555555557
aF29099.442505320752
aF37805.635317460314
aF22629.425000000007
aF25136.519444444439
aF24074
aF35129.800396825391
aF30731.024726269035
aF31343.175000000017
aF29153.435511982574
aF25551.11854256854
aF32382.94965921012
aF31943.364285714284
aF32233.01814574315
aF30816.583333333332
aF43583.505438842207
aF27959.670581757429
aF38848.25036075036
aF29256.533333333344
aF65488.799999999988
aF35148
aF26734.118322981365
aF31258.449418174427
aF35816.801118326097
aF20940.418253968252
aF27200.928571428569
aF44347.724999999999
aF21852.873809523808
aF32948.680952380964
aF32734.952489177478
aF23411.666666666668
aF24258.959523809532
aF30945.469227994228
aF39975.418883382692
aF33820.461130098003
aF52951.259920634911
aF37525.411904761895
aF48890.79682539685
aF33116.334920634923
aF18778.214285714286
aF48333.416666666679
aF22572.454761904763
aF64014.155158730151
aF28196.47976190476
aF36841.594047619052
aF73551.550000000003
aF50643.217691957165
aF43866.011085405822
aF56139.583333333328
aF71607.977777777764
aF37006.523646125126
aF38828.08571428572
aF48615.251190476185
aF43642.232061919567
aF18999.916666666668
aF23959.696031746033
aF60061.272932330823
aF43628.776100288604
aF57910.436507936523
aF37736.101005244745
aF50961.434487734514
aF48665.51666666667
aF34309.412881562886
aF34472.965007214996
aF29961.086111111112
aF40447.159523809511
aF32065.261507936502
aF38308.20844155844
aF130077.96666666669
aF40067.659523809532
aF38159.575030525048
aF19076.659523809525
aF62138.151190476165
aF43009.52762515263
aF40561.765890498398
aF54699.263888888869
aF54682.265476190463
aF19768.99642857142
aF48171.997081807043
aF23930.440079365078
aF34995.876190476185
aF55450.034126984145
aF32707.816666666669
aF60175.880226310204
aF31497.354761904764
aF31494.311507936509
aF40396.177813852839
aF59778.171392496428
aF35625.147749034586
aF32901.583798511441
aF47172.352328227324
aF40962.809920634907
aF28383.540476190479
aF34680.372442469787
aF47666.860317460312
aF45313.749999999993
aF35760.210520035514
aF32195.048809523807
aF28862.916666666657
aF29271.786263736267
aF33410.653777268482
aF31947.036083302875
aF40564.148593073602
aF45412.283333333318
aF28644.920238095245
aF19121.1880952381
aF38815.345477379284
aF36168.698809523819
aF28983.326123876126
aF29979.905952380945
aF32490.50833333335
aF33545.380402930408
aF39776.950000000012
aF27184.783576390928
aF47870.845238095229
aF49083.081746031712
aF71261.458333333314
aF55367.805782289586
aF42453.208333333328
aF49265.17777777779
aF76017.122700393331
aF47863.126515701231
aF48746.82189730207
aF47759.13951612715
aF80408.82752525252
aF46299.407142857162
aF44692.85710678211
aF57484.740476190476
aF74464.049999999988
aF47566.699264216179
aF45578.191645301238
aF39625.02023809524
aF86467.126479076454
aF67929.300526924024
aF54847.342929292943
aF54371.533417138409
aF49573.544300144305
aF74941.845238095251
aF67415.217901542899
aF56238.990476190484
aF47499.074485722384
aF60845.330952380929
aF67944.927380952402
aF80242.497619047601
aF63030.082226068356
aF49476.472619047621
aF78753.597716172677
aF46987.175457875448
aF60422.110023310022
aF57515.094841269842
aF70905.951154401177
aF37259.125000000007
aF76291.132877307915
aF46553.372835733026
aF60697.816311792783
aF38914.419841269839
aF51031.313661965251
aF58135.699999999997
aF52877.368614718594
aF56657.549206349213
aF44140.611760461747
aF38423.875
aF76004.902380952364
aF33500.019189470673
aF34497.248125465514
aF61152.698809523798
aF35462.259776334788
aF39000.374405134171
aF32964.703174603179
aF36390.505245658649
aF53979.482184482156
aF55803.115231990283
aF41313.894655344673
aF39408.091666666667
aF46344.213997113962
aF92143.163492063482
aF36358.424603174601
aF35695.139849039835
aF27856.384126984125
aF32462.171042846043
aF46902.630952380961
aF31483.063115218105
aF43066.533916522108
aF41306.176984127
aF46810.400000000009
aF41267.399502478205
aF61087.89761904761
aF33032.699999999997
aF48540.785882173361
aF37137.200108225115
aF20909.073809523808
aF30980.24571955821
aF40235.673548510291
aF55364.871994671994
aF66554.885714285701
aF68170.771438280382
aF44613.425757575758
aF31377.481962481961
aF42521.691396103888
aF85201.811111111121
aF83994.401190476186
aF72724.429761904801
aF136802.14285714284
aF62366.850726320437
aF55580.203722094913
aF42163.145310245302
aF54160.762230824737
aF51719.8007936508
aF90398.891991341981
aF75131.609634646418
aF28518.022763347763
aF36230.08726551228
aF34424.849095349091
aF73587.543650793683
aF55313.487737262745
aF31901.226984126984
aF77898.212698412695
aF39130.991702741725
aF52761.944951644713
aF36735.840909090897
aF20916.49155844155
aF20469.799999999996
aF22140.515079365083
aF30587.981746031757
aF23959.393831168833
aF21184.266666666666
aF24375.533333333336
aF29361.916687479192
aF17535.017532467533
aF89595.06904761905
aF40956.248309108632
aF45228.365873015871
aF55929.35753968254
aF29106.465079365084
aF31696.875396825395
aF32420.064571539577
aF44576.059126984117
aF36687.806501831496
aF39955.789285714287
aF26647.922619047615
aF26029.333333333336
aF36626.870535483031
aF43314.609523809529
aF41023.675767696353
aF25889.833333333328
aF46034.00595238094
aF21615.84523809524
aF16672.5
aF32284.833333333328
aF40963.238095238106
aF22601.499789915975
aF26944.605555555569
aF35251.004761904755
aF35161.462545787545
aF44904.44404761905
aF34144.316666666658
aF20821.883333333331
aF28417.341514041505
aF26609.357936507949
aF35294.583333333328
aF18655.583333333332
aF26599.454761904748
aF26514.062973137978
aF30860.507142857139
aF33314.433333333334
aF17731.125396825399
aF31586.550000000007
aF23703.541666666664
aF15415.352380952381
aF32501.584204460822
aF17930.226190476194
aF19624.364285714277
aF34544.985714285722
aF49000.149999999994
aF17872.400000000005
aF26521.280952380952
aF28373.561111111107
aF29547.472101290532
aF27137.833333333328
aF22605.204927090457
aF51982.717460317457
aF51241.062078921255
aF45440.441666666658
aF50782.323809523812
aF42337.236191765216
aF22820.266269841271
aF42454.216666666674
aF24227.091269841269
aF23777.003174603178
aF48967.854329004309
aF31517.414682539682
aF28594.44474969475
aF43789.548190534966
aF37350.722222222219
aF44136.523809523802
aF23743.933333333331
aF27017.050000000003
aF29849.705952380944
aF27248.333333333336
aF36892.59062049062
aF31902.157142857159
aF39733.381060606029
aF35016.445995670998
aF25040.249999999996
aF30183.734523809515
aF42365.426190476195
aF27216.142857142848
aF23571.26666666667
aF44795.725584162457
aF42042.124098124121
aF33559.685500610496
aF29151.202380952385
aF22516.575036075028
aF50048.311904761911
aF32019.854906350949
aF48990.928479853428
aF26199.733333333337
aF25720.99749694749
aF25614.816666666666
aF63458.500000000007
aF24805.786904761899
aF27474.042803030297
aF10928.5
aF87035.40595238097
aF33479.028571428564
aF36732.240476190476
aF25102.516666666674
aF36295.320183696997
aF23129.316666666669
aF19041
aF21923.969444444439
aF23462.73978015449
aF18889.333333333336
aF47801.441541791544
aF38854.75830280831
aF59188.427777777739
aF49165.610897435901
aF76106.342532467534
aF46343.126032953973
aF41609.546284271288
aF57809.900000000001
aF55387.963764013773
aF32594.84166666666
aF44580.179115982057
aF45709.204302233695
aF38243.899227439229
aF40429.482417582418
aF35907.233333333337
aF43179.293648879837
aF39720.820471195468
aF38123.298765606385
aF49463.750720921256
aF45500.798999985214
aF86211.307070707058
aF27949.416666666668
aF49042.71746031745
aF59963.444841269855
aF86193.866666666669
aF45770.196649230289
aF39751.398412698414
aF65932.233874458863
aF39013.525000000009
aF40439.280991231011
aF48865.99974665857
aF30376.10713453214
aF41091.199958374942
aF51359.005331596491
aF45823.9988095238
aF36480.660281385302
aF36592.224965671492
aF46128.887681208646
aF26102.599206349198
aF51667.809041448731
aF37124.485576351755
aF29936.058189033185
aF25621.985714285714
aF42133.342857142874
aF34365.929881229888
aF33664.000000000007
aF48632.688888888879
aF89354.038095238095
aF43004.423809523811
aF33272.931375269618
aF35949.982142857145
aF27770.570238095246
aF30588.652380952379
aF53406.448809523812
aF47146.901587301596
aF22284.000000000007
aF23813.036038961029
aF26231.933333333331
aF28672.368864468863
aF21027.519047619055
aF33032.240764790782
aF22464.066666666666
aF32288.757539682545
aF29012.147147297157
aF28361.985714285718
aF34381.166666666679
aF33269.766666666663
aF23310.133730158719
aF36128.833333333336
aF27317.500121773657
aF32482.683333333338
aF34694.291666666657
aF21228.724114774112
aF28909.828571428578
aF16951.459523809528
aF30321.004761904765
aF27951.599999999995
aF18547.307142857142
aF25683.076496689584
aF22577.066666666669
aF40676.633333333331
aF25589.24563492064
aF27904.813582251096
aF38454.23333333333
aF48108.774999999987
aF22402.116666666669
aF29469.133333333328
aF30422.252014652015
aF15903.308333333332
aF21248.583333333336
aF27278.892857142859
aF31550.5243034743
aF16273.138492063494
aF27783.289555695203
aF22960.066666666662
aF29649.738095238095
aF30581.788095238095
aF17858.640476190485
aF15862.883333333331
aF46650.149999999994
aF52874.590528510322
aF34140.149603174606
aF44932.294047619056
aF31924.441666666666
aF34067.922907647902
aF49286.615476190476
aF42688.361448410556
aF33474.272222222229
aF45120.729081702622
aF32817.437716450222
aF29916.267532467526
aF39022.383152958166
aF17560.773809523809
aF38049.933893557427
aF78802.264285714278
aF40038.733802834584
aF23239.252752802746
aF50960.055555555547
aF39103.751938674373
aF61842.113492063479
aF62137.161923757354
aF66220.716666666689
aF43935.688677988706
aF40651.90952380954
aF32056.688419913404
aF26998.990476190469
aF46009.672619047626
aF29575.038095238087
aF19528.333333333339
aF30015.438492063488
aF23524.876190476185
aF44011.516666666692
aF38338.130100618386
aF33493.345238095229
aF30787.347619047618
aF24255.371428571438
aF17853.674999999999
aF30955.299999999999
aF31625.527777777777
aF26127.849999999999
aF20768.06388888889
aF23431.607142857138
aF24773.457402319895
aF33152.516897241796
aF23244.985714285714
aF27473.465873015874
aF49640.566666666658
aF38094.817870233652
aF31086.48333333333
aF37238.723040628945
aF23099.402705627705
aF20016.833333333332
aF25010.373394660906
aF23986.015873015869
aF13750.333333333332
aF28943.049999999999
aF25097.900291375292
aF20991.130158730153
aF26484.083333333336
aF9575.4999999999982
aF25855.314285714288
aF24011.702380952385
aF32850.407142857148
aF33808.192857142858
aF16279.465995115997
aF32323.883238167051
aF29523.689682539665
aF32060.782849095351
aF28667.366666666661
aF23042.84880952381
aF38792.452380952396
aF31752.91589580011
aF23188.330119063943
aF27190.406132756139
aF25130.792857142857
aF27484.400000000001
aF16847.747619047623
aF37329.266666666663
aF24297.443528693533
aF40923.71797455418
aF29654.599999999999
aF16761.433333333327
aF25919.716666666667
aF20710.566666666673
aF24629.028571428575
aF24592.625183150194
aF18182.125000000004
aF30638.235714285711
aF25660.933333333338
aF29972.146428571417
aF33091.60492955822
aF25951.327380952374
aF21454.51666666667
aF19894.315476190488
aF42288.736904761914
aF28960.609523809529
aF36709.262950937962
aF37682.840163878471
aF36410.044841269839
aF26308.852442002444
aF19799.461904761902
aF30825.053643578642
aF33054.742063492071
aF24354.599999999995
aF16625.147619047617
aF35281.697914811113
aF36028.547280497274
aF15226.70833333333
aF24591.215476190479
aF6246.166666666667
aF21061.476032301031
aF23019.566666666669
aF21988.09166666666
aF28994.583333333328
aF31432.189661654131
aF28024.728440419232
aF33119.71264538094
aF22773.676984126985
aF39926.938888888893
aF30128.775072150078
aF34767.33968253967
aF33222.969047619066
aF37702.25
aF33865.642735042718
aF28341.850000000006
aF34126.023015873026
aF26045.733333333341
aF47363.533333333333
aF19442.85787545787
aF28166.049999999996
aF33194.472222222212
aF20637.910317460322
aF22064.395238095243
aF29158.077292152284
aF24569.227128427112
aF21678.801334776344
aF20315.266666666666
aF14444.233333333334
aF31260.645238095229
aF37412.73333333333
aF36817.123412698398
aF15137.383333333335
aF32696.91585359085
aF12070.233333333334
aF27325.464421079432
aF31855.733333333337
aF21444.4380952381
aF22555.383333333335
aF27992.438492063484
aF41973.216666666667
aF35111.666666666664
aF32758.729040404036
aF15966.533333333333
aF22372.57916666667
aF20209.946206571207
aF23726.099242424239
aF24728.710714285706
aF29784.683333333334
aF29134.650000000001
aF25533.749999999996
aF29811.200000000001
aF23955.583333333332
aF23330.666666666664
aF24823.319047619039
aF26725.24772449772
aF34681.407031923583
aF19841.833333333339
aF40355.716666666667
aF21599.200000000001
aF58332.290476190494
aF27727.981640908118
aF18911.216819291822
aF34546.459523809528
aF29004.393754856257
aF17508.686904761907
aF24087.779653679645
aF22614.549157324152
aF45032.074206349207
aF30456.163095238091
aF28720.883152958158
aF29381.661904761913
aF38775.91269425019
aF31958.749999999993
aF35315.866727716726
aF30847.965873015884
aF47260.133730158705
aF29953.270848595839
aF37726.51666666667
aF30669.034920634913
aF31763.54872072372
aF41234.887031024511
aF24005.486507936512
aF26240.737271062266
aF46493.525000000016
aF43366.769444444435
aF54981.313888888908
aF38012.148556998574
aF34068.935427725875
aF20703.166666666668
aF27952
aF36291.800000000003
aF26635.417929292933
aF47714.199999999997
aF41752.94642857142
aF23393.880484466514
aF19585.491003441006
aF18571.257142857143
aF20826.466666666667
aF18217.833333333336
aF34612.115476190462
aF19663.439682539676
aF33888.983333333337
aF23861.838888888891
aF28719.047619047615
aF30807.840385053536
aF27175.75336826915
aF20449.42222222222
aF43364.501190476207
aF35885.496303258165
aF33168.660735832796
aF63656.513888888891
aF29740.921176046177
aF54752.096428571422
aF36563.897619047624
aF55380.037301587312
aF42000.434920634914
aF32036.656843156845
aF33318.706349206339
aF37629.833516845465
aF40088.586430502757
aF27248.24563492063
aF51289.583333333328
aF36104.715331890322
aF29715.476190476198
aF50354.173412698394
aF28150.023343323341
aF33751.443305232788
aF47164.173074052364
aF28539.984126984127
aF33686.797619047611
aF44944.938095238103
aF28085.661111111105
aF43307.03333333334
aF36297.572691197682
aF32525.68174603174
aF43287.133333333346
aF53959.186111111107
aF31263.075396825388
aF44264.548015873013
aF38359.850396825415
aF51671.473809523806
aF38838.626159951156
aF43241.295802005014
aF32007.480663780665
aF35717.316666666666
aF19497.250000000004
aF33416.453174603164
aF30014.13333333332
aF22466.335557132923
aF24845.457285769786
aF17796.100000000002
aF32578.383333333328
aF19987.189285714285
aF23025.112121212122
aF22631.478571428572
aF21854.883333333331
aF26353.341388888886
aF24098.975000000002
aF28405.386015373515
aF28753.317306304805
aF51822.333333333336
aF41805.798735691693
aF35564.233333333337
aF42269.698809523819
aF31371.47671471041
aF32679.926190476195
aF35020.830952380958
aF29839.220238095237
aF26526.054761904757
aF38679.733333333337
aF28435.299999999992
aF102493.14761904762
aF38158.692351259844
aF31168.910119047625
aF37431.154761904756
aF26132.528571428567
aF25711.684740259738
aF29870.999999999993
aF19415.558730158729
aF29611.904761904771
aF20661.538744588735
aF23614.807142857153
aF17917.316666666669
aF26044.811111111107
aF18301.429761904757
aF28286.056168831165
aF50251.683333333349
aF30681.566666666666
aF21271.133333333331
aF31722
aF26519.766666666663
aF24860.683333333338
aF22867.883333333335
aF28622.566666666666
aF53614.93333333332
aF23408.366666666665
aF38235.04541316528
aF26372.913258636792
aF28834.855952380949
aF24257.76666666667
aF21417.70555555556
aF34499.218390673639
aF24055.132142857146
aF21968.186507936516
aF20445.024424698106
aF30377.133333333335
aF26699.070263194466
aF19128.825760350759
aF25788.176060051072
aF23361.733333333326
aF37912.761904761916
aF28842.266666666663
aF17238.583333333339
aF33611.817857142858
aF22070.664285714276
aF27904.378246753247
aF25831.867460317462
aF32229.404761904763
aF24208.826767676768
aF28023.850000000006
aF22238.085714285713
aF18981.920346320348
aF21190.843253968258
aF30656.101037851044
aF24642.792857142857
aF27848.116666666665
aF23090.050000000003
aF26516.733333333334
aF24186.033333333336
aF23847.199999999997
aF19058.347147297143
aF39534.713095238098
aF18327.337499102203
aF20414.349999999999
aF27893.999999999996
aF35924.174603174608
aF18691.800000000003
aF35445.435317460317
aF21747.049999999996
aF18087.166666666675
aF26884.662698412696
aF15144.509523809524
aF16136.059523809521
aF17423.583333333332
aF21658.633333333331
aF24050.624999999996
aF22352.319047619047
aF18684.086904761909
aF20181.666666666668
aF25898.892857142855
aF28168.891666666659
aF32128.8373015873
aF15010.071794871796
aF32934.559523809527
aF26927.414458874471
aF16846.749999999993
aF13967.683333333332
aF17997.266666666666
aF16024
aF37749.599999999991
aF27675.898462275854
aF50093.55238095238
aF21276.655769230762
aF32492.914929514936
aF23552.239412385003
aF22831.599999999988
aF21117.867099567091
aF38067.866666666676
aF24698.365187590196
aF31289.733333333337
aF18985.45714285714
aF30847.578572489601
aF20545.683333333327
aF30339.236904761903
aF27199.833333333328
aF23872.841215728728
aF41541.666666666672
aF28531.527020202022
aF20685.438095238085
aF19714
aF39750.366666666669
aF30909.825793650787
aF18419.958333333336
aF43656.229786289485
aF19974.539285714287
aF26513.247619047626
aF20859.344047619048
aF22489.773376623372
aF20266.396810134305
aF22070.566666666666
aF27254.266666666663
aF23955.435714285712
aF18912.446825396823
aF17371.350000000002
aF16289.849999999997
aF25910.083333333339
aF36131.343650793657
aF23905.191666666658
aF40868.495238095231
aF26203.340476190475
aF47122.37658730158
aF25081.404455266966
aF29931.355844155842
aF24012.288888888885
aF28573.249999999985
aF26013.665981240982
aF27314.959126984118
aF39795.572136474642
aF40233.939898989898
aF42881.995634920626
aF31031.833730158738
aF19379.86547619048
aF32335.883333333331
aF33846.450793650794
aF24816.233333333341
aF36674.210853443939
aF47398.902326088348
aF18610.919047619052
aF60667.48730158728
aF31034.438095238096
aF49247.333333333328
aF96537.304761904757
aF36791.72526395171
aF28199.96666666666
aF29345.063095238089
aF47864.771428571439
aF32483.141338522582
aF23024.977092352095
aF44911.73333333333
aF38564.826793141503
aF49945.953174603164
aF37448.77220936957
aF40897.743077918822
aF31788.930555555555
aF28029.952380952385
aF25665.013023088028
aF18788.428968253964
aF26454.551190476195
aF33555.150000000001
aF25440.301190476188
aF36394.623809523822
aF31555.099999999999
aF34969.19951342258
aF38178.961904761883
aF33139.462161531279
aF46115.675396825405
aF25527.922619047622
aF29930.622619047615
aF23682.372619047623
aF32607.016666666674
aF25066.049783549781
aF26587.983333333334
aF31420.583333333332
aF54924.311904761911
aF28978.888690476186
aF47583.690913858823
aF55897.034523809525
aF47184.985586962066
aF45124.202497721591
aF58319.98333333333
aF46314.854365079351
aF49243.974206349201
aF41475.143474580982
aF43385.385714285723
aF29410.127976190481
aF58406.771428571439
aF32754.491258169932
aF65735.095695970667
aF51546.112951998984
aF46278.864592352111
aF36578.340476190489
aF26602.099999999999
aF38737.065241702738
aF39715.259523809516
aF30618.562184873947
aF52423.170834419201
aF54779.809307359319
aF31709.867142008312
aF36947.282900432889
aF38155.632539682534
aF44600.348809523821
aF51748.738564093364
aF64640.117857142868
aF47172.675396825383
aF14824.166666666668
aF22377.66031746033
aF18657.00551948051
aF30984.666666666672
aF25474.416666666664
aF19412.040476190476
aF30026.374603174612
aF31751.599999999984
aF21714.904870129867
aF22698.821428571428
aF27149.766666666666
aF29807.926190476192
aF18700.217821067818
aF20339.72380952381
aF20630.607142857141
aF24547.797435897432
aF43246.444372294383
aF28216.30238095238
aF30546.402380952375
aF27711.416666666672
aF35474.749425574402
aF25526.69108946609
aF25642.701465201473
aF28193.240476190473
aF28916.950000000001
aF19896.530952380945
aF30999.450000000004
aF26922.834523809524
aF16253.883333333331
aF18186.249999999996
aF18433.220923520927
aF17469.164285714287
aF19345.92142857143
aF32391.066666666673
aF40632.126515151525
aF25481.876190476189
aF21830.96507936508
aF20762.166666666668
aF31832.057142857135
aF29947.773491506028
aF30466.9380952381
aF22849.016666666663
aF21054.142857142859
aF27224.389926739932
aF25722.651190476194
aF16138.954761904761
aF22821.538744588739
aF25521.099999999995
aF21940.057178932184
aF21165.995238095235
aF22862.400000000001
aF18003.116666666669
aF27634.071626984125
aF30040.023809523806
aF23798.144408369411
aF23229.39285714283
aF23436.202380952382
aF27141.104761904768
aF24872.924242424244
aF39768.859523809522
aF29061.983333333334
aF33692.250000000007
aF25219.626623376618
aF23086.567857142862
aF32713.985645091623
aF17968.857142857145
aF17177.826587301592
aF28264.914285714294
aF17548.826190476193
aF33519.682804184129
aF32579.289379084974
aF35469.833333333328
aF25988.186274509808
aF31740.661041246334
aF18115.333333333336
aF25044.966666666667
aF37997.374499193626
aF21315.250000000007
aF28111.231349206359
aF22648.363630667583
aF27970.879761904765
aF24835.970238095222
aF24738.226190476187
aF14055.566666666668
aF15874.949999999997
aF23119.369047619042
aF28974.483333333334
aF19152.883333333335
aF17720.216666666664
aF18523.397619047617
aF11004.383333333331
aF24131.257126696844
aF13591.54761904762
aF21588.166666666664
aF28846.862432094047
aF18030.700000000001
aF34148.599999999991
aF24295.773809523798
aF31202.366666666661
aF19582.516666666674
aF25306.457733932733
aF22016.683333333316
aF11821.75
aF17348.583333333336
aF19214.815079365075
aF19684.433333333334
aF23970.416666666664
aF19857.029761904763
aF13722.950000000001
aF14916.058125208125
aF14512.999999999996
aF21672.885497835494
aF39416.349999999999
aF29526.012698412691
aF18669.003571428566
aF21097.311904761907
aF25316.149999999994
aF21557.600000000002
aF22540.016666666663
aF20367.009523809527
aF22347.466666666671
aF16391.314285714288
aF20107.272619047613
aF18187.466666666667
aF20150.69768564769
aF14400.807142857142
aF38382.567834583519
aF23278.157142857126
aF25936.466666666656
aF20634.52380952382
aF21878.633333333331
aF13210.066666666668
aF9780.4999999999982
aF30513.033333333333
aF53439.310714285704
aF18393.242171717178
aF38071.841594516583
aF19857.216666666671
aF21856.273809523806
aF22259.629220779225
aF19579.316666666666
aF24218.747619047619
aF27165.57121212122
aF35756.442257776544
aF32508.100396825401
aF14062.999999999998
aF36872.168664178949
aF30549.902380952379
aF29672.642857142862
aF30297.416666666661
aF34297.980555555565
aF25120.067776667776
aF33143.166666666664
aF14800.116666666665
aF14808.966666666667
aF27794.728571428561
aF15144.831060606059
aF19066.140476190474
aF20395.650000000005
aF32334.320238095239
aF10650.133333333331
aF29245.892765567765
aF22812.583333333336
aF19181.450000000001
aF38101.597619047621
aF16910
aF20689.291666666664
aF18585.183333333338
aF26189.116666666669
aF26395.250641025646
aF17929.100000000002
aF18921.600000000002
aF23789.466666666671
aF39442.457142857136
aF26877.383333333335
aF24334.280259446437
aF16204.061904761904
aF25657.549999999999
aF25655.747366522359
aF30700.163131313147
aF27723.721886446889
aF23014.458333333336
aF27299.43786491287
aF15923.483333333335
aF14036.257142857143
aF22081.677778757188
aF24765.952380952374
aF13969.059523809525
aF17323.049999999999
aF23220.700000000004
aF14792.933333333334
aF13530.80714285714
aF22118.865304984873
aF22057.166666666664
aF22415.026190476194
aF17825.633333333335
aF11894.333333333336
aF16133.914285714285
aF20298.099999999999
aF18753.499999999996
aF21759.619486215535
aF11316
aF16459.783333333333
aF16220.650000000001
aF30115.73333333333
aF16526.194047619043
aF36689.928829759621
aF21768.321861471861
aF23232.875
aF20826.858008658015
aF20900.826190476197
aF18938.380555555559
aF18270.549999999999
aF20663.783333333333
aF34930.328571428567
aF29019.457431311381
aF28073.529365079357
aF38379.188888888908
aF18760.409199134199
aF33429.806349206345
aF32637.08809523809
aF21247.266666666666
aF28732.008408503258
aF19366.029473304479
aF25186.51666666667
aF13293.039285714289
aF33663.138275613295
aF29505.745238095242
aF20771.992857142854
aF31075.861507936497
aF22940.883333333328
aF32083.233333333341
aF33357.700000000004
aF30981.761904761905
aF29344.188095238089
aF30591.076190476186
aF29276.448026973034
aF35824.202380952374
aF17018.109523809526
aF20612.23333333333
aF28908.105921855913
aF22538.965326778492
aF22542.633333333331
aF30469.695238095228
aF19747.273809523813
aF19123.416666666668
aF19530.666666666672
aF17123.916666666672
aF35575.223412698411
aF12982.633333333335
aF14998.410497835503
aF22933.216666666664
aF19974.584920634923
aF31889.13809523809
aF20327.53333333334
aF21402.59444444445
aF33119.783333333333
aF22943.580952380948
aF29484.148326673312
aF29513.200000000001
aF19840.833333333336
aF32699.266666666663
aF18247.296428571422
aF42544.799725274708
aF43119.746234729304
aF35091.137545787569
aF25292.614102564097
aF28224.55034213098
aF28460.860714285714
aF13283.345238095235
aF18926.116666666661
aF17069.033333333336
aF24026.047619047618
aF24940.216666666667
aF36087.983333333352
aF29324.636904761901
aF25340.407142857148
aF30339.155036630036
aF28501.706823731816
aF29744.669047619052
aF23208.142099567103
aF37681.933333333334
aF27868.277380952382
aF46021.550366300376
aF24658.935714285708
aF20579.641269841257
aF29012.75952380952
aF27064.562354638838
aF20286.959523809521
aF17296.48333333333
aF24618.400000000009
aF21656.432142857138
aF21674.969841269834
aF32141.285714285717
aF19378.388095238104
aF35152.642857142855
aF24007.26666666667
aF18543.866666666669
aF24012.431901431901
aF35137.316666666651
aF32100.057142857146
aF19644.083333333325
aF17873.824783549786
aF25849.855555555554
aF16429.71666666666
aF12650.86666666667
aF19093.199999999997
aF23810.377489177481
aF19383.890864690864
aF17016.166666666664
aF17949.666666666668
aF15297.283333333335
aF19464.94761904762
aF22744.202380952374
aF16044.666666666666
aF15524.007142857143
aF21794.716666666667
aF32819.429557942065
aF16875.633333333331
aF47365.077380952374
aF37789.242857142883
aF27230.798351648344
aF24059.566666666666
aF25950.842063492055
aF41641.062967076781
aF28179.584415584406
aF29657.123809523811
aF33004.326587301577
aF34582.487698412682
aF21832.305891330903
aF12761.099999999999
aF12821.166666666666
aF21819.000000000011
aF21117.583333333328
aF15572.499999999998
aF32294.547197539301
aF18138.066666666666
aF23843.133369963365
aF25695.450000000004
aF20981.915609536667
aF17867.15119047619
aF18303.583333333328
aF22364.992568542566
aF23163.313308913301
aF15264.166666666666
aF19879.970238095244
aF27235.500000000004
aF17816.966666666667
aF9241.8333333333339
aF21995.5
aF20176.810225885227
aF27000.4565989566
aF25913.136186525895
aF26125.348593073584
aF26474.239896214891
aF25349.783333333333
aF17034.149059274059
aF20894.283333333329
aF27233.666666666675
aF27958.885107376285
aF26642.104761904753
aF25396.891666666659
aF29002.874999999996
aF28395.873809523797
aF23382.633333333335
aF21910.400000000001
aF17740.615800865799
aF22808.249999999996
aF20661.966450216438
aF21175.716666666667
aF19357.333333333339
aF17289.642857142862
aF12970.916666666666
aF13955.333333333332
aF19607.016666666666
aF37559.318290043295
aF31405.683333333327
aF36417.442857142858
aF33623.30238095238
aF31274.323340548337
aF48017.422276943333
aF40025.625487012971
aF33573.641090018922
aF32744.699999999997
aF42523.720508658
aF12828.500000000002
aF25831.454761904759
aF43457.762341997361
aF16301.795238095239
aF19377.22896825397
aF24690.100000000002
aF19011.750000000004
aF25622.183333333338
aF26816.833333333336
aF25123.183333333342
aF25138.64761904761
aF26831.195238095235
aF23993.908423520919
aF19090.333333333336
aF16567.502380952385
aF17113.673809523811
aF18760.25
aF21867.408638583638
aF22115.406150793646
aF10287.583333333334
aF19316.209523809517
aF18058.066666666666
aF19268.533333333333
aF26638.116666666665
aF31645.285714285721
aF26480.099603174596
aF20686.130952380943
aF32749.087026862049
aF38301.793650793647
aF18116.75
aF18735.435526315796
aF20142.394039294035
aF20470.278719401511
aF18717.352380952383
aF15630.833333333332
aF19686.733333333334
aF24461.524581339712
aF15322.555555555553
aF19995.600000000002
aF29490.830952380951
aF16215.346428571427
aF26077.46666666666
aF23389.749999999996
aF30110.834200716436
aF21498.610028860032
aF19238.156993007004
aF12453.266666666666
aF20036.96666666666
aF20683.09166666666
aF37771.433333333342
aF25043.450888817057
aF23534.98394383394
aF27327.656792717084
aF32368.990224188052
aF14979.045238095234
aF21948.666666666664
aF30609.283333333333
aF19494.152380952382
aF21662.973160173158
aF24573.533333333336
aF22627.580952380948
aF20116.333333333328
aF28332.316666666673
aF19077.399206349193
aF17597.783333333329
aF21764.033333333329
aF14842.5
aF20250.333333333332
aF16562.826190476189
aF27181.46497141747
aF29189.383333333335
aF18275.953571428574
aF18250.395238095236
aF23305.547619047622
aF31467.796481296482
aF25910.32857142857
aF37002.007029868146
aF23605.052669552668
aF24949.950000000001
aF19596.903138528134
aF22182.870634920637
aF19400.581749459692
aF24624.650000000005
aF23045.205882352941
aF21476.66663059163
aF20932.566666666662
aF15159.078571428574
aF24596.434930128347
aF21828.111904761899
aF16396.411111111112
aF11685.833333333336
aF18595.183333333338
aF20800.814056776562
aF27724.815920190918
aF16332.917460317454
aF22854.713930513932
aF18846.749999999996
aF30218.736786880123
aF24257.288095238102
aF24329.499999999996
aF26192.45714285714
aF21663.173365523366
aF24465.807142857138
aF30061.16502850004
aF17800.811904761907
aF24637.05952380953
aF29206.765247252748
aF34224.133333333324
aF16121.892857142857
aF14151.452380952383
aF21272.15555555555
aF24478.938888888886
aF17082.350000000002
aF24740.216666666682
aF18001.741666666672
aF18542.022727272732
aF20402.616666666665
aF13356.616666666665
aF14124.867857142861
aF19148.25
aF20877.019444444446
aF16301.075000000001
aF15227.666666666668
aF13993.416666666666
aF23578.238095238103
aF42545.083333333328
aF9780.8333333333321
aF28013.233333333326
aF18099.610714285714
aF21835.466666666664
aF22913.433333333327
aF18481.713888888888
aF19100.116666666661
aF20815.216666666667
aF24337.166666666668
aF20721.200000000008
aF18792.499999999996
aF24720.916666666668
aF32381.083333333336
aF18541.519047619047
aF31035.74358974359
aF25600.28917748919
aF24886.658333333336
aF15641.166666666666
aF22898.133433233445
aF17703.034163059157
aF15691.150000000001
aF30943.170044661227
aF19980.666666666664
aF18304.138888888883
aF16644.238095238095
aF30758.761904761908
aF26938.895238095232
aF20293.166666666668
aF18225.849999999999
aF14393.116666666667
aF13192.366666666667
aF18875.616666666669
aF14735.678571428571
aF49534.695995671005
aF31591.88095238095
aF41960.615525634013
aF22650.449999999997
aF23621.400000000001
aF31886.178571428572
aF18205.699999999997
aF16953.497619047623
aF15754.674999999992
aF19790.176190476199
aF24238.576226551228
aF24279.450000000001
aF23589.169832944837
aF17808.454761904766
aF19212.333333333336
aF28370.33701298702
aF23684.011904761901
aF16570.81277056277
aF25652.968495393492
aF17526.75
aF16120.336904761905
aF17792.716666666667
aF18365.333372183377
aF18135.43968253968
aF28922.541666666672
aF13987.333333333334
aF28990.826190476197
aF26504.338278388281
aF17266.749999999996
aF23013.199560733381
aF25272.042640692638
aF24803.774236874237
aF26878.685714285719
aF20759.433333333331
aF24068.083333333328
aF23872.744444444455
aF22560.357875457874
aF18719.738095238099
aF26129.566666666662
aF19189.035714285717
aF27298.416666666675
aF30119.150000000001
aF33283.711357210035
aF26056.499999999996
aF14624.330627705627
aF19861.366666666669
aF29184.163913571818
aF15366.215873015875
aF20223.833333333332
aF20795.683333333338
aF15288.266666666665
aF22462.166550116544
aF24402.599999999995
aF16937.453174603175
aF17713.569047619043
aF28269.080492898909
aF35461.073058095157
aF20338.533333333336
aF29402.863095238088
aF28903.473354749829
aF19037.479761904771
aF29958.55640951755
aF17434.183333333334
aF28220.107575757585
aF25878.867857142857
aF21057.949999999993
aF27996.424999999996
aF23848.65457875458
aF25364.929761904754
aF31241.633333333331
aF19896.113636363632
aF13417.733333333334
aF16559.583333333328
aF14912.805555555557
aF15303.133333333337
aF17397.349999999995
aF16470.416666666664
aF18423.626923076921
aF16652.069047619047
aF16588.216666666671
aF34030.759250491945
aF13020.583333333334
aF15280.066666666666
aF16986.21434953935
aF35711.083333333336
aF19435.581257631267
aF7801.8333333333339
aF20820.073405760897
aF18983.200000000004
aF18118.217857142856
aF42138.833333333328
aF40351.133333333339
aF16490.238095238095
aF11874.416666666668
aF15925.200000000001
aF17643.416666666668
aF16597.057142857138
aF14565.915584415585
aF32382.415873015874
aF19495.749999999996
aF22171.904545454545
aF25479.083333333332
aF21610.54574314574
aF22515.049999999988
aF27234.526745718056
aF29182.383333333335
aF22627.966666666664
aF25280.478571428583
aF25913.021428571432
aF19636.416666666672
aF20859.700000000001
aF18654.416666666668
aF22269.497527472537
aF25346.723809523814
aF30682.274999999998
aF25410.300000000003
aF22194.850000000002
aF19588.000000000004
aF25682.429365079355
aF19106.623809523811
aF25754.642857142866
aF21232.540476190476
aF33824.459488788416
aF17615.666666666672
aF17189.833333333332
aF17688.316666666662
aF24499.304040404044
aF18819.756060606062
aF19256.358333333341
aF17339.416666666668
aF15210.166666666664
aF17709.499999999993
aF12123.250000000002
aF16859.766666666666
aF18652.649999999998
aF25313.622510822519
aF15745.675000000005
aF20509.483333333334
aF18174.325396825399
aF8126.5833333333339
aF22244.952977577974
aF20613.883333333339
aF13358.13333333334
aF16720.466666666664
aF14150.416666666664
aF14651.364393939395
aF17605.542424242423
aF12293.191666666666
aF10965.749999999998
aF16435.566666666666
aF15803.575000000001
aF15734.515873015875
aF17208.728571428568
aF16397.833333333332
aF19097.375
aF27037.999999999996
aF20897.733333333326
aF30639.196428571428
aF17748.435714285712
aF21340.385897435895
aF14651.250000000002
aF13892.730952380956
aF13431.666666666668
aF15942.583333333336
aF16902
aF19734.874603174598
aF11103.833333333336
aF16451.416666666668
aF21632.2444741533
aF19172.233333333337
aF18228.41944444444
aF38450.277458946293
aF10029.183333333332
aF23462.702763902766
aF10502.016666666668
aF17764.140079365079
aF10259.916666666666
aF19542.38809523809
aF30785.826358368151
aF18870.566666666673
aF16367.219552669552
aF17268
aF21342.550000000007
aF21093.89189071162
aF16243.16666666667
aF24610.050000000007
aF21479.866666666661
aF17557.816666666669
aF18848.833333333332
aF19898.971428571429
aF18737.597435897434
aF19379.999999999996
aF19056.416666666664
aF14478.93524808525
aF14414.683333333332
aF19547.797619047618
aF15059.633333333335
aF16844.333333333332
aF12667.280952380954
aF37099.53333333334
aF23243.043939393938
aF32458.750000000004
aF19926.718864468865
aF25131.666666666668
aF29733.844173881676
aF35947.242857142861
aF45203.683333333327
aF34491.966666666667
aF27165.134523809531
aF26789.737095692974
aF25116.49047619048
aF29824.650000000005
aF43861.466666666682
aF20495.091666666667
aF21681.133333333335
aF27788.083333333336
aF32832.649999999994
aF41663.879761904762
aF30684.908333333336
aF24697.249999999993
aF17428
aF21028.250000000004
aF21136.709523809521
aF22170.066666666669
aF18300.338095238094
aF32743.966666666671
aF17787.916666666672
aF23546.683333333342
aF18943.566666666662
aF19271.266666666666
aF22258.083333333332
aF18695.383333333335
aF21258.754689754685
aF21534.683333333331
aF13938.458333333332
aF15656.688095238094
aF20900.599999999999
aF21197.76666666667
aF12006.838095238096
aF18506.600000000006
aF17541.002380952388
aF29512.941440095852
aF23082.861904761907
aF26339.852380952376
aF18576.950000000001
aF17605.316666666669
aF17286.466666666664
aF13519.416666666666
aF7258.5
aF11198.316666666666
aF18808.806854256847
aF31685.98333333333
aF19527.779700854717
aF27404.10833333333
aF21718.114393939391
aF16747.683333333334
aF27832.86142982835
aF16283.333333333334
aF12985.100000000002
aF26770.116666666661
aF17241.75
aF20187.933333333331
aF14896.63333333333
aF14639.705555555556
aF15091.75
aF21071.166666666664
aF18801.850000000002
aF23799.354806304804
aF21518
aF16510.858333333334
aF19069.716666666664
aF26365.833333333336
aF24433.39523809524
aF30658.272745237227
aF20087.402380952382
aF25334.621428571427
aF28196.833333333328
aF28688.269822497761
aF22492.47417027417
aF21018.885714285716
aF22143.597799422801
aF24756.875000000004
aF13205.500000000002
aF18026.926190476195
aF13182.25
aF12661.5
aF16194.818253968251
aF21059.168764568763
aF13244.566666666668
aF20038.376190476189
aF33374.028571428571
aF23099.051190476192
aF13683.788780663781
aF25539.566145756547
aF31222.966666666674
aF21448.057936507936
aF23760.221428571433
aF13321.916666666668
aF14067.800000000001
aF23331.760490620487
aF25884.961111111104
aF28681.326523476524
aF19795.400000000005
aF13324.976190476193
aF8723.2500000000036
aF22681.733333333323
aF13969.450000000003
aF7579.6666666666661
aF18311.399999999998
aF20714.314038739041
aF20550.263492063488
aF21600.571428571428
aF21192.229761904757
aF41640.767748917737
aF28528.129761904744
aF21559.181150793644
aF17102.383333333331
aF12595.766666666663
aF11554.6
aF18106.333333333336
aF20689.283333333347
aF13063.571428571428
aF17560.383333333335
aF16487.219047619048
aF20911.333333333332
aF17594.730952380949
aF11719.642857142855
aF14768.027380952381
aF24331.424999999996
aF21237.104761904768
aF18060.8556998557
aF13356.916666666666
aF21157.766666666663
aF20396.6106442577
aF20485.400000000005
aF13037.47857142857
aF16786.249999999996
aF25234.788095238095
aF17063.883333333339
aF20245.627272727277
aF23547.066666666669
aF23334.033333333336
aF12474.519696969695
aF31196.933333333338
aF16851.330952380955
aF28616.469047619048
aF16584.063247863247
aF29224.966880341886
aF23637.635714285716
aF19360.20555555556
aF18853.122175536886
aF4344.5
aF12135.783333333333
aF11574.75
aF12106.261904761905
aF25041.633333333331
aF18611.961507936514
aF20309.015829921704
aF18189.123809523811
aF22775.900000000001
aF21418.560894660895
aF21700.510966810965
aF24054.640476190478
aF16637.417521367523
aF12135.35
aF28118.84978909979
aF22669.583333333339
aF22934.094058719056
aF7135.3333333333339
aF21335.114285714295
aF25437.683333333327
aF36741.596383060518
aF17431.5
aF34956.460738822578
aF13403.08333333333
aF13520.066666666668
aF19067.149999999991
aF14139.842857142858
aF16737.682034632027
aF12905.874999999998
aF23617.112728937725
aF22024.716666666671
aF18704.083333333339
aF16520.16428571428
aF17005.522222222222
aF12068.466666666664
aF16271.749999999998
aF14185.247619047615
aF25019.7053030303
aF31939.598015873009
aF21124.150000000001
aF21030.158333333329
aF24353.469072357817
aF21434.09798951049
aF22559.633333333331
aF24243.559523809516
aF35986.675685425704
aF15715.416666666666
aF27276.298321449791
aF29864.383333333328
aF29019.890909090915
aF26749.066666666662
aF39674.085625404005
aF23746.800000000007
aF21586.58809523809
aF27207.950000000001
aF20775.907142857141
aF23410.350000000002
aF13104.116666666669
aF20592.291666666668
aF22492.416666666672
aF15295.216666666671
aF14368.838888888889
aF14345.017460317462
aF17454.016666666666
aF21076.916666666668
aF15195.909523809523
aF27663.000000000004
aF24172.833333333328
aF20356.302380952377
aF9348.0833333333339
aF21003.931512605042
aF25964.92738095238
aF18035.717965367967
aF34270.949999999997
aF22429.266666666666
aF17326.883333333335
aF24490.54819624819
aF18749.596320346325
aF22766.133333333331
aF20879.083333333336
aF17991.536104826548
aF17047.991161616163
aF22247.690254190253
aF17130.049999999999
aF16713.183333333334
aF28996.907658715547
aF16586.321428571428
aF12046.166666666668
aF27448.854906204913
aF24111.457575757577
aF25073.383333333339
aF24492.571428571431
aF21356.511291486291
aF19611.109126984131
aF15621.250000000002
aF18405.166666666664
aF28933.575396825399
aF12002.307142857146
aF23288.841666666667
aF17280.341486291487
aF14689.616666666663
aF21506.025002775001
aF26416.273949515402
aF21446.5
aF12730.483333333334
aF16055.516666666666
aF16965.016666666666
aF12058.333333333334
aF15878.680735930733
aF14695.091666666667
aF25884.2049908425
aF22886.41358351793
aF37404.108333333344
aF26840.654076869982
aF17275.97510822511
aF23759.350000000006
aF12101.733333333332
aF17668.623809523808
aF14586.066666666666
aF15847.964285714288
aF16718.492857142861
aF17603.383333333335
aF20469.133333333335
aF13810.023809523809
aF17950.75
aF26709.016666666663
aF19568.846428571425
aF18035.902991452986
aF17646.723717948717
aF15612.678174603174
aF22312.05595238095
aF17392.657142857137
aF14239.733333333334
aF17140.704761904759
aF16645.568326118329
aF17898.299999999999
aF12159.766666666663
aF26057.885714285712
aF15273.05238095238
aF12304.083333333334
aF12102.083333333334
aF19004.922766122763
aF23221.592857142856
aF12524.69761904762
aF16276.471306471307
aF18829.749999999996
aF7348.4166666666661
aF16268.09772727273
aF9683.9166666666679
aF19070.400793650795
aF19881.178571428569
aF22632.248160173163
aF15002.466666666664
aF22536.133333333328
aF19732.462445887453
aF21884.883333333331
aF17114.849999999999
aF21153.864285714284
aF6327.5000000000018
aF27071.545238095256
aF24354.512121212127
aF17277.651337551342
aF22639.218831168837
aF23078.500549450549
aF12140.833333333334
aF18133.633333333339
aF28096.501945276945
aF7927.5
aF17438.65317460318
aF16112.883333333333
aF15056.587942612943
aF23135.958134920635
aF27868.266666666666
aF20213.999999999996
aF24170.199999999997
aF19897.402777777777
aF24615.449999999993
aF26821.816666666666
aF25876.666666666661
aF20835.075108225108
aF19915.166666666664
aF23536.159523809514
aF27687.211976911974
aF19108.892857142855
aF21599.771428571425
aF10887.533333333333
aF15872.836363636361
aF12879.783333333333
aF13926.766666666668
aF15617.5
aF19275.716666666667
aF21017.582142857143
aF16091.088034188037
aF13726.883333333331
aF13651.515384615384
aF10743.166666666666
aF19149.686188811193
aF17911.851587301586
aF18888.733333333334
aF11966.749999999998
aF12010.750000000002
aF12763.266666666666
aF17423.183333333323
aF13076.85
aF14940.282467532466
aF22978.333369408378
aF18629.02619047619
aF16497.940476190473
aF17370.25
aF22970.021428571421
aF29335.139177489178
aF15820.500000000002
aF34910.385714285709
aF16499.154761904763
aF18774.047619047615
aF23857.374675324674
aF21514.049675324673
aF22734.480555555565
aF9195.5833333333339
aF18117.291666666672
aF22972.199782243901
aF17521.43095238095
aF15730.733333333335
aF18810.182575757575
aF21309.497619047619
aF19036.999673202612
aF12782.725
aF17246.866666666672
aF6402.3333333333339
aF26910.916748768472
aF11847.433333333336
aF15630.333333333336
aF15773.249999999998
aF17827.482936507939
aF14009.349999999999
aF9702.5
aF17052.5
aF16927.099999999999
aF18082.633333333342
aF16516.428968253971
aF16857.099999999999
aF19514.488383838387
aF45391.650000000009
aF32813.27904905552
aF27393.758333333335
aF26292.516666666677
aF18407.99285714285
aF36019.014285714286
aF34138.566666666673
aF24837.804761904768
aF22811.536911699408
aF19076.486904761903
aF37888.943722943724
aF44533.849999999991
aF41168.970870653939
aF16525.154761904763
aF16163.783333333333
aF23163.11190476191
aF20516.12431457431
aF18212.956637806641
aF18395.988095238092
aF12496.350000000002
aF18367.628968253965
aF18021.716666666664
aF20643.745238095238
aF10625.616666666667
aF15438.300000000001
aF16976.833333333336
aF12316.404761904763
aF13833.616666666667
aF18849.516666666666
aF17876.683333333342
aF15725.666666666666
aF11465.833333333334
aF15291.807142857144
aF17357.39523809524
aF20233.61190476191
aF12521.666666666666
aF40783.309880996196
aF14648.321428571426
aF19218.016666666663
aF17130.766666666666
aF15779.083333333334
aF25552.879509379516
aF15705.333333333334
aF16631.310606060604
aF18926.016666666674
aF19651.4384060384
aF15594.544347319357
aF11962.716666666665
aF25165.057821263705
aF13174.900000000001
aF22061.816341991344
aF15992.685714285713
aF13603.375
aF12020.075000000001
aF10588.333333333332
aF20260.876419413926
aF19975.333333333332
aF16921.607142857141
aF20362.458333333336
aF20624.024999999998
aF20041.727980352982
aF9780.6666666666679
aF18825.617857142854
aF23187.559662559666
aF11528.773809523809
aF24321.749999999996
aF28037.399999999994
aF22261.527272727271
aF17691.209523809521
aF24398.022768837622
aF16690.536507936511
aF11600.761904761905
aF14537.666666666668
aF14883
aF14527.066666666666
aF20052.514285714289
aF19730.919805194811
aF19087.083333333336
aF22549.826265238025
aF16782.375000000004
aF17155.333333333336
aF21150.03571428571
aF16443.133333333331
aF18772.299999999996
aF16067.696825396826
aF12505.083333333334
aF14346.216666666669
aF12914.216666666669
aF15871.61958874459
aF18208.58214285714
aF15922.916666666668
aF12996.799999999997
aF17358.188095238089
aF14532.711904761903
aF31088.175884899421
aF20571.740242763764
aF19304.29722222222
aF18462.016666666666
aF22334.170798319326
aF20302.349999999999
aF19622.882142857146
aF23068.276008713514
aF19794.091791541789
aF3509.3333333333335
aF30669.925626274307
aF22248.063247863243
aF21366.831746031752
aF15294.308333333331
aF17831.291666666664
aF14233.708333333334
aF12050.083333333334
aF16462.183333333334
aF14225.666666666666
aF13951.094988344983
aF16081.683333333334
aF16820.647619047617
aF16103.9
aF17270.400000000001
aF12591.016666666665
aF16095.930952380953
aF8106.2999999999993
aF8076.7666666666664
aF11369.794047619047
aF18045.714141414144
aF18863.469047619044
aF16046.599999999997
aF22898.538457049483
aF17917.966666666667
aF10867.833333333332
aF16741.180555555555
aF14314.809523809525
aF22687.310714285708
aF17304.606349206348
aF18435.75
aF13239
aF20345.058946608951
aF15822.338888888886
aF20931.443470418475
aF21256.849999999995
aF25230.584464146963
aF25416.556256997577
aF17462.133333333331
aF24148.490202779674
aF23745.639610389604
aF30278.066678338004
aF19003.260714285712
aF16911.725901875903
aF20349.74642857143
aF20197.450000000001
aF25037.562837162837
aF15324.622222222222
aF15122.183333333332
aF22414.247374847379
aF20910.752899877902
aF28368.843704906198
aF14513.73333333333
aF23068.346367521372
aF8356.1666666666679
aF23362.214657564666
aF3965.166666666667
aF13771.249999999998
aF17200.58762626263
aF11599.258333333333
aF16034.874206349208
aF17356.954761904766
aF12290.75
aF13226.749999999998
aF14525.016666666666
aF18875.497022422027
aF15833.041666666666
aF25560.257413419913
aF20603.73943001443
aF6805.4833333333327
aF26554.019877344879
aF24267.542857142853
aF18328.485714285714
aF28363.099999999999
aF24104.672506660008
aF13451.044444444446
aF15251.416666666668
aF12660.0873015873
aF16767.133333333331
aF15513.886111111113
aF14595.16666666667
aF10221.316666666666
aF34246.957215791444
aF16677.907936507938
aF15954.095238095237
aF18557.82857142857
aF19371.489285714291
aF17939.01666666667
aF26953.879148629152
aF12049.833333333334
aF18183.274999999998
aF12357.050000000001
aF15867.52142857143
aF28096.875902365613
aF14351.673809523809
aF14359.383333333335
aF18280.463360323887
aF18450.077380952382
aF18275.233333333337
aF25468.207359307358
aF17481.266666666666
aF14576.416666666666
aF13165.916666666666
aF13113.316666666666
aF21590.81679292929
aF17905.466666666678
aF16334.850455100455
aF15805.266666666668
aF14613.766666666668
aF17387.246744758508
aF14568.066666666669
aF17921.300000000007
aF15922.250000000004
aF16915.383333333331
aF19510.109523809529
aF9574.6666666666661
aF12624.166666666662
aF17020.951515151515
aF7110.166666666667
aF18175.749999999996
aF15241.516666666666
aF20334.083333333328
aF16801.131349206349
aF23197.139702291173
aF19260.346320346318
aF13832.833333333334
aF21018.187554112548
aF36608.980206509463
aF21370.199999999997
aF17973.216666666671
aF20639.619413919412
aF14528.915909090909
aF16726.511111111111
aF15562.814285714287
aF17731.340476190471
aF14865.999999999996
aF15929.500000000002
aF11768.633333333335
aF14463.99523809524
aF19502.442063492072
aF14897.761111111109
aF18666.571428571428
aF11181.016666666668
aF16578.549999999996
aF16489.433333333334
aF19868.200000000001
aF20949.583333333332
aF17553.546825396821
aF14172.066666666666
aF12664.483333333332
aF15502.233333333332
aF15414.8735958486
aF12307.066666666668
aF11601.666666666664
aF18283.916666666664
aF12731.733333333335
aF16699.164285714283
aF12005.200000000003
aF12772.833333333334
aF18599.439285714285
aF17568.566666666666
aF23131.900795772854
aF17878.595129870133
aF19209.647619047617
aF19909.583333333332
aF19478.399999999998
aF21605.100000000002
aF14254.461904761905
aF16534.833333333328
aF16164.147619047619
aF18098.062950937951
aF8214.9166666666679
aF15914.5
aF24022.145238095243
aF19453.262698412702
aF13933.81031746032
aF17008.583333333332
aF19511.195238095239
aF15593.849999999999
aF20314.683333333334
aF15521.25833333333
aF16069.707864357864
aF15908.188095238094
aF20098.074705849707
aF21467.533333333329
aF25670.212698412695
aF28220.164036453742
aF17523.397222222226
aF23737.149999999991
aF14964.205555555556
aF13303.806349206348
aF12879.783333333335
aF15528.040476190476
aF13780.585714285713
aF11743.683333333332
aF15341.983333333334
aF12578.033333333333
aF19088.753174603178
aF25859.10415140415
aF16467.424999999999
aF19931.337987012994
aF20961.065331890328
aF24160.416666666668
aF24926.521581196579
aF32455.261452436462
aF18018.316666666669
aF31137.435175608705
aF16834.897619047621
aF12396.950000000001
aF20372.416666666668
aF24302.749999999996
aF19487.127380952385
aF17383.852380952383
aF23912.161904761899
aF11701.405555555551
aF12526.766666666665
aF15269.549999999997
aF18171.950000000001
aF14288.159523809523
aF12386.083333333334
aF13088.283333333333
aF12913.216666666667
aF12055.550000000001
aF16030.096428571433
aF18613
aF16943.642857142855
aF26086.863095238099
aF17680.266666666663
aF17875.024963924956
aF11419.314285714287
aF13108.904761904761
aF15599.149999999998
aF15399.450000000001
aF18357.221428571429
aF11616.654761904763
aF13963.583333333332
aF11530.583333333336
aF19036.964285714283
aF14581.983333333334
aF13952.853571428572
aF12230.349999999999
aF16324.133333333333
aF21781.383333333335
aF13614.666666666666
aF16781.546428571433
aF9216.7499999999982
aF17853.953968253962
aF17082.266666666666
aF17121.933333333331
aF27804.370561894248
aF9286.9404761904771
aF18397.321428571431
aF15799.940873015874
aF9636.6999999999989
aF15763.150000000001
aF10790.716666666667
aF18335.435897435898
aF12275.873484848486
aF14929.333333333332
aF10775.016666666666
aF11976
aF15404.954761904764
aF13864.099999999997
aF8715.3999999999996
aF16705.416666666664
aF14550.449999999999
aF23596.766941391939
aF21209.971428571425
aF17948.145454545454
aF24350.333333333339
aF24217
aF20551.916666666668
aF17663.933333333334
aF18060.340476190475
aF20760.814213564216
aF21876.366666666669
aF14736.633333333333
aF12282.450000000003
aF13581.700000000001
aF16231.833333333334
aF16384.485353535354
aF13233.083333333334
aF10910.89523809524
aF16384.75
aF17932.372222222217
aF10931.416666666668
aF20110.830952380951
aF10223.5
aF14615.566666666666
aF20329.499999999996
aF12134.023809523809
aF21087.619369519376
aF16872.251190476192
aF15632.232539682536
aF12424.83333333333
aF17732.187362637367
aF14932.949999999999
aF13947.425000000005
aF21083.840476190475
aF11242.266666666666
aF20264.349999999995
aF23871.537547746371
aF15639.783333333331
aF17324.433333333331
aF15771.566666666668
aF19282.033333333336
aF16593.400793650795
aF18356.749999999996
aF16706.966666666667
aF16064.32987012987
aF7138.583333333333
aF15283.133333333331
aF15469.933333333332
aF14318.677777777777
aF11506.4
aF17808.083333333336
aF17524.783333333329
aF13551.75
aF14933.942857142858
aF14369.550000000001
aF9732.4333333333325
aF26144.298449328449
aF17492.111111111113
aF25215.800494607731
aF16385.241666666669
aF11012.416666666666
aF15825.983333333335
aF14792.866666666669
aF3932
aF19824.241666666672
aF23858.559523809527
aF11690.455555555556
aF15706.210317460318
aF12704.449999999999
aF14398.366666666667
aF16303.582936507933
aF14646.533333333333
aF11223.816666666668
aF14810.666666666668
aF12081.599999999999
aF17982.561607836604
aF19599.53571428571
aF14243.51626984127
aF9982.3166666666657
aF15210.283333333331
aF15131.553571428565
aF17411.422222222223
aF13696.583333333334
aF23311.360606060596
aF23403.43846153847
aF17904.699999999997
aF16782.780952380952
aF16453.533333333333
aF27240.404237867395
aF15783.899999999998
aF12324.047619047618
aF10652.366666666667
aF16387.567984792986
aF16259.86919191919
aF15162.471428571431
aF14565.849999999999
aF16685.440079365078
aF10647.567857142858
aF17078.483333333334
aF15089.69587912088
aF23225.805926748693
aF10227.516666666666
aF17397.383333333335
aF22884.044964684432
aF18107.448412698413
aF21885.189466089465
aF14641.080952380953
aF18523.019230769234
aF17032.605322128846
aF11001.083333333334
aF19092.857142857141
aF22171.660489510487
aF20622.493589743593
aF9910.1666666666661
aF23838.126587301584
aF14086.375
aF14085.633333333335
aF17967.420238095237
aF13196.633333333333
aF14304.683333333331
aF15655.638852813852
aF14615.442857142854
aF17386.322222222225
aF22615.818903922165
aF22638.115261638948
aF12800.25
aF12942.737878787881
aF15760.428066378066
aF14702.966666666665
aF18442.681457431459
aF13641.583116883117
aF16496.153571428571
aF13062.166666666664
aF14822.268650793652
aF16902.894949494948
aF22524.824175824178
aF13800.321428571428
aF12354.066666666668
aF7783.1404761904769
aF12867.083333333332
aF11305.456926406925
aF12059.992857142855
aF15326.788095238097
aF24078.81066433567
aF18915.387962037956
aF13562.866666666665
aF12205.333333333332
aF25280.083170995666
aF14874.803571428571
aF16114.693650793652
aF17336.758333333331
aF17335.787301587294
aF15137.878174603173
aF14053.266666666665
aF14379.547619047617
aF10455.583333333334
aF27998.447627372629
aF10525.633333333333
aF15530.104365079367
aF12266.299999999999
aF22478.45627705627
aF12022.108333333334
aF16317.587987012988
aF17406.955555555556
aF15325.54696969697
aF15263.288095238095
aF14407.118681318683
aF12765.476190476189
aF11408.038383838384
aF28519.63601463896
aF12464.333333333334
aF11310.600000000002
aF19823.906998556999
aF12043.066666666666
aF23686.969991772934
aF18091.869444444445
aF11723.35
aF9014.5023809523809
aF17649.001587301584
a.