(dp1
(I3
I15
tp2
F5
s(I6
I9
tp3
F5
s(I10
I11
tp4
F15.833333333333332
s(I4
I6
tp5
F3.333333333333333
s(I2
I18
tp6
F5
s(I5
I6
tp7
F7.5
s(I2
I8
tp8
F23.333333333333329
s(I5
I13
tp9
F0
s(I0
I7
tp10
F4.1666666666666661
s(I1
I15
tp11
F0
s(I13
I17
tp12
F0
s(I2
I6
tp13
F5
s(I0
I10
tp14
F4.1666666666666661
s(I11
I14
tp15
F48.333333333333329
s(I6
I12
tp16
F15.833333333333332
s(I3
I7
tp17
F3.333333333333333
s(I6
I14
tp18
F77.5
s(I2
I11
tp19
F8.3333333333333321
s(I4
I9
tp20
F8.3333333333333321
s(I7
I15
tp21
F22.5
s(I1
I5
tp22
F5
s(I5
I12
tp23
F0
s(I4
I8
tp24
F55.833333333333329
s(I1
I14
tp25
F20.833333333333329
s(I8
I10
tp26
F32.5
s(I4
I13
tp27
F5
s(I7
I19
tp28
F6.6666666666666661
s(I2
I13
tp29
F5
s(I3
I6
tp30
F8.3333333333333321
s(I0
I4
tp31
F6.6666666666666661
s(I3
I4
tp32
F3.333333333333333
s(I4
I16
tp33
F3.333333333333333
s(I6
I18
tp34
F15.833333333333332
s(I9
I14
tp35
F30.833333333333329
s(I7
I10
tp36
F0
s(I5
I11
tp37
F5
s(I4
I5
tp38
F2.5
s(I5
I17
tp39
F0
s(I10
I19
tp40
F6.6666666666666661
s(I0
I18
tp41
F0.83333333333333326
s(I1
I4
tp42
F13.333333333333332
s(I0
I12
tp43
F0.83333333333333326
s(I5
I9
tp44
F5
s(I12
I18
tp45
F0
s(I0
I5
tp46
F3.333333333333333
s(I1
I9
tp47
F0
s(I10
I12
tp48
F5
s(I5
I19
tp49
F6.6666666666666661
s(I4
I11
tp50
F6.6666666666666661
s(I3
I5
tp51
F0
s(I2
I7
tp52
F0
s(I9
I13
tp53
F10
s(I11
I17
tp54
F10
s(I5
I10
tp55
F2.5
s(I6
I8
tp56
F54.166666666666657
s(I10
I16
tp57
F3.333333333333333
s(I0
I19
tp58
F0
s(I5
I7
tp59
F2.5
s(I4
I17
tp60
F10
s(I2
I4
tp61
F0
s(I14
I15
tp62
F34.999999999999993
s(I15
I16
tp63
F5
s(I7
I8
tp64
F34.166666666666664
s(I6
I16
tp65
F8.3333333333333321
s.