ccopy_reg
_reconstructor
p1
(csets
Set
p2
c__builtin__
object
p3
NtRp4
((dp5
V180164
p6
I01
sV221545
p7
I01
sV73460
p8
I01
sV73390
p9
I01
sV145758
p10
I01
sV172793
p11
I01
sV118631
p12
I01
sV217476
p13
I01
sV217473
p14
I01
sV220769
p15
I01
sV220768
p16
I01
sV51265
p17
I01
sV61170
p18
I01
sV61172
p19
I01
sV102198
p20
I01
sV19710
p21
I01
sV218137
p22
I01
sV120435
p23
I01
sV243529
p24
I01
sV206706
p25
I01
sV97151
p26
I01
sV57299
p27
I01
sV19973
p28
I01
sV230192
p29
I01
sV195515
p30
I01
sV55831
p31
I01
sV260485
p32
I01
sV252345
p33
I01
sV22485
p34
I01
sV105007
p35
I01
sV259045
p36
I01
sV52469
p37
I01
sV124172
p38
I01
sV17253
p39
I01
sV227235
p40
I01
sV221960
p41
I01
sV104712
p42
I01
sV191685
p43
I01
sV235965
p44
I01
sV135690
p45
I01
sV21618
p46
I01
sV261212
p47
I01
sV64904
p48
I01
sV26026
p49
I01
sV203615
p50
I01
sV203617
p51
I01
sV250772
p52
I01
sV81758
p53
I01
sV85613
p54
I01
sV168087
p55
I01
sV159842
p56
I01
sV44241
p57
I01
sV107789
p58
I01
sV113317
p59
I01
sV58078
p60
I01
sV190338
p61
I01
sV22873
p62
I01
sV190489
p63
I01
sV42830
p64
I01
sV190335
p65
I01
sV139935
p66
I01
sV49304
p67
I01
sV226125
p68
I01
sV38501
p69
I01
sV116121
p70
I01
sV170930
p71
I01
sV157073
p72
I01
sV158716
p73
I01
sV36846
p74
I01
sV90314
p75
I01
sV192427
p76
I01
sV199308
p77
I01
sV198305
p78
I01
sV163504
p79
I01
sV71533
p80
I01
sV202706
p81
I01
sV68281
p82
I01
sV237037
p83
I01
sV147912
p84
I01
sV30413
p85
I01
sV213298
p86
I01
sV237031
p87
I01
sV30419
p88
I01
sV106624
p89
I01
sV106620
p90
I01
sV123964
p91
I01
sV188960
p92
I01
sV252451
p93
I01
sV70483
p94
I01
sV112040
p95
I01
sV49719
p96
I01
sV155412
p97
I01
sV41566
p98
I01
sV264990
p99
I01
sV241451
p100
I01
sV99735
p101
I01
sV99737
p102
I01
sV175088
p103
I01
sV175084
p104
I01
sV27576
p105
I01
sV156659
p106
I01
sV156658
p107
I01
sV243769
p108
I01
sV21478
p109
I01
sV243764
p110
I01
sV40324
p111
I01
sV40748
p112
I01
sV237593
p113
I01
sV40325
p114
I01
sV242146
p115
I01
sV23504
p116
I01
sV217264
p117
I01
sV79847
p118
I01
sV175885
p119
I01
sV109449
p120
I01
sV109446
p121
I01
sV205938
p122
I01
sV169026
p123
I01
sV175888
p124
I01
sV39596
p125
I01
sV31233
p126
I01
sV178100
p127
I01
sV174684
p128
I01
sV233601
p129
I01
sV171419
p130
I01
sV263170
p131
I01
sV238878
p132
I01
sV263174
p133
I01
sV234375
p134
I01
sV72705
p135
I01
sV72258
p136
I01
sV105823
p137
I01
sV173304
p138
I01
sV34551
p139
I01
sV193213
p140
I01
sV224253
p141
I01
sV26622
p142
I01
sV158953
p143
I01
sV221379
p144
I01
sV35930
p145
I01
sV110631
p146
I01
sV145436
p147
I01
sV199240
p148
I01
sV242074
p149
I01
sV65084
p150
I01
sV259729
p151
I01
sV182669
p152
I01
sV241199
p153
I01
sV52812
p154
I01
sV131478
p155
I01
sV88701
p156
I01
sV22671
p157
I01
sV77288
p158
I01
sV199944
p159
I01
sV192225
p160
I01
sV199942
p161
I01
sV26568
p162
I01
sV180280
p163
I01
sV154867
p164
I01
sV69413
p165
I01
sV244819
p166
I01
sV159541
p167
I01
sV187259
p168
I01
sV218974
p169
I01
sV130872
p170
I01
sV212568
p171
I01
sV110944
p172
I01
sV187257
p173
I01
sV214536
p174
I01
sV241447
p175
I01
sV182594
p176
I01
sV250560
p177
I01
sV249696
p178
I01
sV161516
p179
I01
sV250568
p180
I01
sV4728
p181
I01
sV201131
p182
I01
sV192164
p183
I01
sV43468
p184
I01
sV13611
p185
I01
sV13612
p186
I01
sV201428
p187
I01
sV165353
p188
I01
sV165619
p189
I01
sV98109
p190
I01
sV3748
p191
I01
sV98105
p192
I01
sV28702
p193
I01
sV3741
p194
I01
sV172162
p195
I01
sV138723
p196
I01
sV100954
p197
I01
sV100952
p198
I01
sV94305
p199
I01
sV99859
p200
I01
sV235770
p201
I01
sV99854
p202
I01
sV101029
p203
I01
sV16390
p204
I01
sV181620
p205
I01
sV63907
p206
I01
sV20734
p207
I01
sV52104
p208
I01
sV102943
p209
I01
sV237735
p210
I01
sV153121
p211
I01
sV237732
p212
I01
sV229607
p213
I01
sV113148
p214
I01
sV80102
p215
I01
sV74221
p216
I01
sV251169
p217
I01
sV148407
p218
I01
sV146640
p219
I01
sV74228
p220
I01
sV98666
p221
I01
sV200553
p222
I01
sV42485
p223
I01
sV49175
p224
I01
sV139237
p225
I01
sV46659
p226
I01
sV238231
p227
I01
sV256352
p228
I01
sV45301
p229
I01
sV48551
p230
I01
sV45302
p231
I01
sV252847
p232
I01
sV247097
p233
I01
sV163750
p234
I01
sV133758
p235
I01
sV202959
p236
I01
sV80367
p237
I01
sV265109
p238
I01
sV173952
p239
I01
sV70835
p240
I01
sV90106
p241
I01
sV90100
p242
I01
sV15706
p243
I01
sV40881
p244
I01
sV29373
p245
I01
sV9755
p246
I01
sV9753
p247
I01
sV121778
p248
I01
sV233030
p249
I01
sV63275
p250
I01
sV187411
p251
I01
sV211947
p252
I01
sV211941
p253
I01
sV142162
p254
I01
sV138733
p255
I01
sV142167
p256
I01
sV143699
p257
I01
sV119210
p258
I01
sV179441
p259
I01
sV30627
p260
I01
sV171086
p261
I01
sV86426
p262
I01
sV146866
p263
I01
sV212023
p264
I01
sV212025
p265
I01
sV226669
p266
I01
sV37166
p267
I01
sV176343
p268
I01
sV142348
p269
I01
sV197668
p270
I01
sV138983
p271
I01
sV68619
p272
I01
sV68612
p273
I01
sV157242
p274
I01
sV176834
p275
I01
sV83134
p276
I01
sV243409
p277
I01
sV33247
p278
I01
sV178863
p279
I01
sV187081
p280
I01
sV50086
p281
I01
sV170133
p282
I01
sV207670
p283
I01
sV691
p284
I01
sV58537
p285
I01
sV30336
p286
I01
sV94489
p287
I01
sV229524
p288
I01
sV94959
p289
I01
sV164197
p290
I01
sV59085
p291
I01
sV179999
p292
I01
sV228922
p293
I01
sV13845
p294
I01
sV171623
p295
I01
sV205071
p296
I01
sV77561
p297
I01
sV165112
p298
I01
sV250485
p299
I01
sV238466
p300
I01
sV55100
p301
I01
sV5610
p302
I01
sV170687
p303
I01
sV186427
p304
I01
sV143347
p305
I01
sV115272
p306
I01
sV88956
p307
I01
sV143438
p308
I01
sV88950
p309
I01
sV221528
p310
I01
sV130406
p311
I01
sV130407
p312
I01
sV228071
p313
I01
sV218899
p314
I01
sV89399
p315
I01
sV188773
p316
I01
sV217451
p317
I01
sV94960
p318
I01
sV87905
p319
I01
sV87907
p320
I01
sV206812
p321
I01
sV197890
p322
I01
sV25040
p323
I01
sV218098
p324
I01
sV127359
p325
I01
sV43857
p326
I01
sV35800
p327
I01
sV91881
p328
I01
sV231107
p329
I01
sV145816
p330
I01
sV231102
p331
I01
sV166138
p332
I01
sV200943
p333
I01
sV107283
p334
I01
sV56107
p335
I01
sV240321
p336
I01
sV177661
p337
I01
sV191448
p338
I01
sV60005
p339
I01
sV191443
p340
I01
sV57275
p341
I01
sV103802
p342
I01
sV57271
p343
I01
sV198818
p344
I01
sV65690
p345
I01
sV247665
p346
I01
sV222072
p347
I01
sV32077
p348
I01
sV131314
p349
I01
sV227257
p350
I01
sV98594
p351
I01
sV97687
p352
I01
sV149263
p353
I01
sV227259
p354
I01
sV120142
p355
I01
sV240126
p356
I01
sV240123
p357
I01
sV113080
p358
I01
sV235903
p359
I01
sV219322
p360
I01
sV219324
p361
I01
sV247405
p362
I01
sV176041
p363
I01
sV141103
p364
I01
sV141454
p365
I01
sV141108
p366
I01
sV45468
p367
I01
sV105285
p368
I01
sV134369
p369
I01
sV134368
p370
I01
sV43147
p371
I01
sV162347
p372
I01
sV154291
p373
I01
sV139913
p374
I01
sV42812
p375
I01
sV160920
p376
I01
sV49329
p377
I01
sV22812
p378
I01
sV170915
p379
I01
sV182049
p380
I01
sV147858
p381
I01
sV75074
p382
I01
sV182041
p383
I01
sV22819
p384
I01
sV170918
p385
I01
sV148938
p386
I01
sV203492
p387
I01
sV232244
p388
I01
sV204443
p389
I01
sV94176
p390
I01
sV94170
p391
I01
sV249526
p392
I01
sV70648
p393
I01
sV102888
p394
I01
sV53978
p395
I01
sV81753
p396
I01
sV236905
p397
I01
sV58233
p398
I01
sV160185
p399
I01
sV78396
p400
I01
sV108735
p401
I01
sV14869
p402
I01
sV246207
p403
I01
sV122018
p404
I01
sV62315
p405
I01
sV248869
p406
I01
sV246208
p407
I01
sV62310
p408
I01
sV246759
p409
I01
sV237500
p410
I01
sV179295
p411
I01
sV30433
p412
I01
sV251446
p413
I01
sV251447
p414
I01
sV113887
p415
I01
sV148617
p416
I01
sV113889
p417
I01
sV146105
p418
I01
sV36173
p419
I01
sV255523
p420
I01
sV132328
p421
I01
sV108843
p422
I01
sV89940
p423
I01
sV230085
p424
I01
sV108846
p425
I01
sV38198
p426
I01
sV203237
p427
I01
sV87125
p428
I01
sV27555
p429
I01
sV264978
p430
I01
sV156631
p431
I01
sV248925
p432
I01
sV252387
p433
I01
sV186635
p434
I01
sV84455
p435
I01
sV151233
p436
I01
sV137847
p437
I01
sV40764
p438
I01
sV47233
p439
I01
sV136132
p440
I01
sV59010
p441
I01
sV179873
p442
I01
sV30297
p443
I01
sV15115
p444
I01
sV15117
p445
I01
sV196438
p446
I01
sV107115
p447
I01
sV29122
p448
I01
sV191946
p449
I01
sV25896
p450
I01
sV174118
p451
I01
sV31219
p452
I01
sV233376
p453
I01
sV71779
p454
I01
sV238673
p455
I01
sV79512
p456
I01
sV88546
p457
I01
sV196531
p458
I01
sV47938
p459
I01
sV234355
p460
I01
sV163985
p461
I01
sV67787
p462
I01
sV131671
p463
I01
sV26607
p464
I01
sV26606
p465
I01
sV44914
p466
I01
sV219667
p467
I01
sV61783
p468
I01
sV88721
p469
I01
sV213181
p470
I01
sV127824
p471
I01
sV149908
p472
I01
sV223226
p473
I01
sV22381
p474
I01
sV249322
p475
I01
sV249320
p476
I01
sV187273
p477
I01
sV147884
p478
I01
sV199965
p479
I01
sV60920
p480
I01
sV50697
p481
I01
sV159563
p482
I01
sV74931
p483
I01
sV60771
p484
I01
sV23386
p485
I01
sV263053
p486
I01
sV151504
p487
I01
sV151505
p488
I01
sV61258
p489
I01
sV177292
p490
I01
sV61253
p491
I01
sV241312
p492
I01
sV127755
p493
I01
sV154592
p494
I01
sV86240
p495
I01
sV1321
p496
I01
sV81565
p497
I01
sV228480
p498
I01
sV73056
p499
I01
sV73057
p500
I01
sV257262
p501
I01
sV165636
p502
I01
sV188380
p503
I01
sV13676
p504
I01
sV99193
p505
I01
sV4745
p506
I01
sV5868
p507
I01
sV16005
p508
I01
sV165323
p509
I01
sV96430
p510
I01
sV56847
p511
I01
sV94368
p512
I01
sV42579
p513
I01
sV17600
p514
I01
sV110213
p515
I01
sV60259
p516
I01
sV2189
p517
I01
sV145018
p518
I01
sV56940
p519
I01
sV104035
p520
I01
sV262465
p521
I01
sV235756
p522
I01
sV130235
p523
I01
sV57642
p524
I01
sV262468
p525
I01
sV253362
p526
I01
sV121971
p527
I01
sV173248
p528
I01
sV64006
p529
I01
sV60781
p530
I01
sV20867
p531
I01
sV106090
p532
I01
sV146664
p533
I01
sV148420
p534
I01
sV240373
p535
I01
sV60070
p536
I01
sV25568
p537
I01
sV240377
p538
I01
sV15718
p539
I01
sV248144
p540
I01
sV205822
p541
I01
sV205274
p542
I01
sV205275
p543
I01
sV92417
p544
I01
sV42315
p545
I01
sV227468
p546
I01
sV41690
p547
I01
sV45323
p548
I01
sV134421
p549
I01
sV45633
p550
I01
sV87353
p551
I01
sV162579
p552
I01
sV191162
p553
I01
sV9198
p554
I01
sV39800
p555
I01
sV39802
p556
I01
sV265161
p557
I01
sV113794
p558
I01
sV63780
p559
I01
sV265169
p560
I01
sV16911
p561
I01
sV70809
p562
I01
sV105617
p563
I01
sV105616
p564
I01
sV176180
p565
I01
sV123534
p566
I01
sV70369
p567
I01
sV63254
p568
I01
sV95180
p569
I01
sV98566
p570
I01
sV71188
p571
I01
sV112216
p572
I01
sV18950
p573
I01
sV37361
p574
I01
sV37366
p575
I01
sV176986
p576
I01
sV187470
p577
I01
sV223764
p578
I01
sV21400
p579
I01
sV255738
p580
I01
sV26835
p581
I01
sV123284
p582
I01
sV119231
p583
I01
sV187715
p584
I01
sV238359
p585
I01
sV149488
p586
I01
sV121708
p587
I01
sV219050
p588
I01
sV158909
p589
I01
sV110712
p590
I01
sV175183
p591
I01
sV98773
p592
I01
sV169634
p593
I01
sV186870
p594
I01
sV263039
p595
I01
sV67315
p596
I01
sV54036
p597
I01
sV37982
p598
I01
sV195223
p599
I01
sV54033
p600
I01
sV24577
p601
I01
sV238195
p602
I01
sV19816
p603
I01
sV62126
p604
I01
sV222425
p605
I01
sV170118
p606
I01
sV122220
p607
I01
sV220866
p608
I01
sV207127
p609
I01
sV234509
p610
I01
sV169949
p611
I01
sV264789
p612
I01
sV144995
p613
I01
sV144994
p614
I01
sV169941
p615
I01
sV8737
p616
I01
sV183389
p617
I01
sV8732
p618
I01
sV175981
p619
I01
sV258027
p620
I01
sV145578
p621
I01
sV35052
p622
I01
sV261087
p623
I01
sV171600
p624
I01
sV5676
p625
I01
sV230699
p626
I01
sV118545
p627
I01
sV190975
p628
I01
sV170575
p629
I01
sV91986
p630
I01
sV114108
p631
I01
sV55122
p632
I01
sV156174
p633
I01
sV144193
p634
I01
sV34182
p635
I01
sV115291
p636
I01
sV228019
p637
I01
sV151197
p638
I01
sV151191
p639
I01
sV130429
p640
I01
sV130420
p641
I01
sV228017
p642
I01
sV217439
p643
I01
sV181834
p644
I01
sV23244
p645
I01
sV101722
p646
I01
sV47000
p647
I01
sV213534
p648
I01
sV241810
p649
I01
sV87438
p650
I01
sV153053
p651
I01
sV109257
p652
I01
sV6439
p653
I01
sV73601
p654
I01
sV92184
p655
I01
sV39382
p656
I01
sV177468
p657
I01
sV73609
p658
I01
sV131881
p659
I01
sV262785
p660
I01
sV130680
p661
I01
sV74058
p662
I01
sV130687
p663
I01
sV78929
p664
I01
sV94014
p665
I01
sV200968
p666
I01
sV6758
p667
I01
sV131081
p668
I01
sV98607
p669
I01
sV166111
p670
I01
sV166115
p671
I01
sV221057
p672
I01
sV107916
p673
I01
sV206743
p674
I01
sV177604
p675
I01
sV16743
p676
I01
sV57783
p677
I01
sV96601
p678
I01
sV230996
p679
I01
sV231026
p680
I01
sV259086
p681
I01
sV117291
p682
I01
sV149248
p683
I01
sV189448
p684
I01
sV131337
p685
I01
sV261780
p686
I01
sV249159
p687
I01
sV25711
p688
I01
sV43781
p689
I01
sV52784
p690
I01
sV159357
p691
I01
sV25718
p692
I01
sV43788
p693
I01
sV49520
p694
I01
sV140875
p695
I01
sV21657
p696
I01
sV125660
p697
I01
sV125664
p698
I01
sV200298
p699
I01
sV219878
p700
I01
sV149103
p701
I01
sV149106
p702
I01
sV124396
p703
I01
sV45400
p704
I01
sV204607
p705
I01
sV250735
p706
I01
sV184717
p707
I01
sV57250
p708
I01
sV167243
p709
I01
sV153845
p710
I01
sV162366
p711
I01
sV191318
p712
I01
sV82790
p713
I01
sV157038
p714
I01
sV84388
p715
I01
sV22837
p716
I01
sV244734
p717
I01
sV102574
p718
I01
sV167423
p719
I01
sV232228
p720
I01
sV101987
p721
I01
sV183923
p722
I01
sV90601
p723
I01
sV90607
p724
I01
sV58962
p725
I01
sV58966
p726
I01
sV14845
p727
I01
sV58969
p728
I01
sV54205
p729
I01
sV112910
p730
I01
sV223091
p731
I01
sV38602
p732
I01
sV256255
p733
I01
sV125914
p734
I01
sV146430
p735
I01
sV44756
p736
I01
sV146124
p737
I01
sV85659
p738
I01
sV125919
p739
I01
sV112008
p740
I01
sV142731
p741
I01
sV33541
p742
I01
sV32101
p743
I01
sV222354
p744
I01
sV59789
p745
I01
sV20294
p746
I01
sV84020
p747
I01
sV225432
p748
I01
sV222353
p749
I01
sV248940
p750
I01
sV95646
p751
I01
sV129149
p752
I01
sV9381
p753
I01
sV218515
p754
I01
sV135880
p755
I01
sV67144
p756
I01
sV67143
p757
I01
sV135883
p758
I01
sV163234
p759
I01
sV40929
p760
I01
sV198430
p761
I01
sV233170
p762
I01
sV164014
p763
I01
sV138780
p764
I01
sV15133
p765
I01
sV134203
p766
I01
sV77938
p767
I01
sV216284
p768
I01
sV159998
p769
I01
sV258907
p770
I01
sV18749
p771
I01
sV238835
p772
I01
sV229267
p773
I01
sV34514
p774
I01
sV253660
p775
I01
sV173341
p776
I01
sV106985
p777
I01
sV123076
p778
I01
sV2886
p779
I01
sV31495
p780
I01
sV7492
p781
I01
sV133873
p782
I01
sV224210
p783
I01
sV26665
p784
I01
sV224742
p785
I01
sV23014
p786
I01
sV152094
p787
I01
sV226527
p788
I01
sV212612
p789
I01
sV151345
p790
I01
sV158112
p791
I01
sV242091
p792
I01
sV131437
p793
I01
sV189639
p794
I01
sV245458
p795
I01
sV155190
p796
I01
sV206998
p797
I01
sV155194
p798
I01
sV88296
p799
I01
sV155196
p800
I01
sV249308
p801
I01
sV154827
p802
I01
sV249302
p803
I01
sV77243
p804
I01
sV108317
p805
I01
sV28894
p806
I01
sV207358
p807
I01
sV241373
p808
I01
sV27357
p809
I01
sV213257
p810
I01
sV110185
p811
I01
sV192120
p812
I01
sV86269
p813
I01
sV114403
p814
I01
sV124894
p815
I01
sV43319
p816
I01
sV81540
p817
I01
sV258278
p818
I01
sV165652
p819
I01
sV185284
p820
I01
sV103241
p821
I01
sV32261
p822
I01
sV170491
p823
I01
sV220066
p824
I01
sV64796
p825
I01
sV52369
p826
I01
sV17378
p827
I01
sV124091
p828
I01
sV64791
p829
I01
sV56645
p830
I01
sV56315
p831
I01
sV56865
p832
I01
sV56866
p833
I01
sV116373
p834
I01
sV130212
p835
I01
sV244504
p836
I01
sV224967
p837
I01
sV220245
p838
I01
sV77970
p839
I01
sV155335
p840
I01
sV127777
p841
I01
sV241480
p842
I01
sV253616
p843
I01
sV253613
p844
I01
sV181665
p845
I01
sV215150
p846
I01
sV124277
p847
I01
sV20841
p848
I01
sV69018
p849
I01
sV257825
p850
I01
sV148446
p851
I01
sV260334
p852
I01
sV25504
p853
I01
sV139277
p854
I01
sV195473
p855
I01
sV166879
p856
I01
sV166876
p857
I01
sV4889
p858
I01
sV167779
p859
I01
sV4880
p860
I01
sV191109
p861
I01
sV166606
p862
I01
sV231925
p863
I01
sV236201
p864
I01
sV176436
p865
I01
sV139095
p866
I01
sV237245
p867
I01
sV227734
p868
I01
sV246902
p869
I01
sV119580
p870
I01
sV97495
p871
I01
sV232543
p872
I01
sV187455
p873
I01
sV42998
p874
I01
sV182366
p875
I01
sV33396
p876
I01
sV33394
p877
I01
sV223745
p878
I01
sV21464
p879
I01
sV45346
p880
I01
sV101129
p881
I01
sV26852
p882
I01
sV86460
p883
I01
sV46845
p884
I01
sV159698
p885
I01
sV67084
p886
I01
sV257443
p887
I01
sV108678
p888
I01
sV92266
p889
I01
sV80851
p890
I01
sV71962
p891
I01
sV197134
p892
I01
sV5245
p893
I01
sV13134
p894
I01
sV138327
p895
I01
sV264544
p896
I01
sV192902
p897
I01
sV243441
p898
I01
sV40265
p899
I01
sV163256
p900
I01
sV207108
p901
I01
sV45961
p902
I01
sV91437
p903
I01
sV122208
p904
I01
sV94918
p905
I01
sV234835
p906
I01
sV17963
p907
I01
sV234522
p908
I01
sV207759
p909
I01
sV252993
p910
I01
sV237339
p911
I01
sV175705
p912
I01
sV30572
p913
I01
sV237425
p914
I01
sV178752
p915
I01
sV233434
p916
I01
sV31535
p917
I01
sV31536
p918
I01
sV254935
p919
I01
sV188480
p920
I01
sV161776
p921
I01
sV229383
p922
I01
sV213731
p923
I01
sV213880
p924
I01
sV229387
p925
I01
sV229384
p926
I01
sV161771
p927
I01
sV106516
p928
I01
sV67880
p929
I01
sV252198
p930
I01
sV156408
p931
I01
sV83178
p932
I01
sV143470
p933
I01
sV156404
p934
I01
sV186465
p935
I01
sV226428
p936
I01
sV186466
p937
I01
sV217149
p938
I01
sV256472
p939
I01
sV253111
p940
I01
sV23223
p941
I01
sV120758
p942
I01
sV173281
p943
I01
sV82172
p944
I01
sV150802
p945
I01
sV173287
p946
I01
sV172783
p947
I01
sV92160
p948
I01
sV170535
p949
I01
sV3911
p950
I01
sV19489
p951
I01
sV110548
p952
I01
sV37722
p953
I01
sV200905
p954
I01
sV196101
p955
I01
sV82286
p956
I01
sV130478
p957
I01
sV56411
p958
I01
sV98621
p959
I01
sV180106
p960
I01
sV114094
p961
I01
sV35254
p962
I01
sV73951
p963
I01
sV228039
p964
I01
sV55856
p965
I01
sV96667
p966
I01
sV256418
p967
I01
sV189463
p968
I01
sV88089
p969
I01
sV166797
p970
I01
sV189467
p971
I01
sV231004
p972
I01
sV6080
p973
I01
sV119778
p974
I01
sV28988
p975
I01
sV159333
p976
I01
sV215366
p977
I01
sV43811
p978
I01
sV135181
p979
I01
sV46081
p980
I01
sV82829
p981
I01
sV82828
p982
I01
sV24823
p983
I01
sV98084
p984
I01
sV208022
p985
I01
sV184738
p986
I01
sV154868
p987
I01
sV172667
p988
I01
sV81739
p989
I01
sV134326
p990
I01
sV204622
p991
I01
sV26082
p992
I01
sV191371
p993
I01
sV191370
p994
I01
sV191373
p995
I01
sV191432
p996
I01
sV128237
p997
I01
sV135988
p998
I01
sV196814
p999
I01
sV46889
p1000
I01
sV5016
p1001
I01
sV205537
p1002
I01
sV46555
p1003
I01
sV116142
p1004
I01
sV63553
p1005
I01
sV116631
p1006
I01
sV154860
p1007
I01
sV17419
p1008
I01
sV246574
p1009
I01
sV17411
p1010
I01
sV222729
p1011
I01
sV186267
p1012
I01
sV222722
p1013
I01
sV101304
p1014
I01
sV113044
p1015
I01
sV213791
p1016
I01
sV9543
p1017
I01
sV160886
p1018
I01
sV58901
p1019
I01
sV14826
p1020
I01
sV124515
p1021
I01
sV153316
p1022
I01
sV134589
p1023
I01
sV172259
p1024
I01
sV36130
p1025
I01
sV146415
p1026
I01
sV218286
p1027
I01
sV254690
p1028
I01
sV41054
p1029
I01
sV156364
p1030
I01
sV156361
p1031
I01
sV252695
p1032
I01
sV186676
p1033
I01
sV196740
p1034
I01
sV44483
p1035
I01
sV133581
p1036
I01
sV248218
p1037
I01
sV107488
p1038
I01
sV248962
p1039
I01
sV248216
p1040
I01
sV248964
p1041
I01
sV18505
p1042
I01
sV163214
p1043
I01
sV71553
p1044
I01
sV78351
p1045
I01
sV179345
p1046
I01
sV205994
p1047
I01
sV264068
p1048
I01
sV164070
p1049
I01
sV116277
p1050
I01
sV123895
p1051
I01
sV184950
p1052
I01
sV194429
p1053
I01
sV31707
p1054
I01
sV233333
p1055
I01
sV107152
p1056
I01
sV263300
p1057
I01
sV263481
p1058
I01
sV263487
p1059
I01
sV263484
p1060
I01
sV149524
p1061
I01
sV149527
p1062
I01
sV33563
p1063
I01
sV226729
p1064
I01
sV78170
p1065
I01
sV40680
p1066
I01
sV143048
p1067
I01
sV34066
p1068
I01
sV34061
p1069
I01
sV137771
p1070
I01
sV3425
p1071
I01
sV184136
p1072
I01
sV156897
p1073
I01
sV126115
p1074
I01
sV162892
p1075
I01
sV187101
p1076
I01
sV126119
p1077
I01
sV212638
p1078
I01
sV23137
p1079
I01
sV265049
p1080
I01
sV212634
p1081
I01
sV22611
p1082
I01
sV22614
p1083
I01
sV131181
p1084
I01
sV238765
p1085
I01
sV216953
p1086
I01
sV77267
p1087
I01
sV180598
p1088
I01
sV228281
p1089
I01
sV197199
p1090
I01
sV230158
p1091
I01
sV72233
p1092
I01
sV103481
p1093
I01
sV234315
p1094
I01
sV28611
p1095
I01
sV166128
p1096
I01
sV196701
p1097
I01
sV167955
p1098
I01
sV95879
p1099
I01
sV130585
p1100
I01
sV258253
p1101
I01
sV35620
p1102
I01
sV19017
p1103
I01
sV51303
p1104
I01
sV89270
p1105
I01
sV197991
p1106
I01
sV197990
p1107
I01
sV189233
p1108
I01
sV148015
p1109
I01
sV61070
p1110
I01
sV103263
p1111
I01
sV263094
p1112
I01
sV256864
p1113
I01
sV65029
p1114
I01
sV57337
p1115
I01
sV189619
p1116
I01
sV222534
p1117
I01
sV56623
p1118
I01
sV64776
p1119
I01
sV64773
p1120
I01
sV235060
p1121
I01
sV217605
p1122
I01
sV230546
p1123
I01
sV185771
p1124
I01
sV25692
p1125
I01
sV74792
p1126
I01
sV163859
p1127
I01
sV57942
p1128
I01
sV27278
p1129
I01
sV214806
p1130
I01
sV241357
p1131
I01
sV205052
p1132
I01
sV27272
p1133
I01
sV205054
p1134
I01
sV235247
p1135
I01
sV260356
p1136
I01
sV43593
p1137
I01
sV120226
p1138
I01
sV64512
p1139
I01
sV191
p1140
I01
sV64516
p1141
I01
sV74536
p1142
I01
sV238901
p1143
I01
sV148463
p1144
I01
sV191742
p1145
I01
sV191745
p1146
I01
sV259123
p1147
I01
sV233231
p1148
I01
sV9155
p1149
I01
sV191120
p1150
I01
sV235680
p1151
I01
sV191123
p1152
I01
sV2762
p1153
I01
sV2765
p1154
I01
sV16404
p1155
I01
sV16405
p1156
I01
sV121244
p1157
I01
sV7907
p1158
I01
sV231940
p1159
I01
sV21191
p1160
I01
sV20821
p1161
I01
sV250670
p1162
I01
sV141539
p1163
I01
sV141535
p1164
I01
sV141531
p1165
I01
sV62252
p1166
I01
sV21440
p1167
I01
sV21335
p1168
I01
sV247389
p1169
I01
sV63290
p1170
I01
sV16246
p1171
I01
sV247380
p1172
I01
sV149739
p1173
I01
sV3450
p1174
I01
sV84755
p1175
I01
sV255775
p1176
I01
sV3459
p1177
I01
sV236080
p1178
I01
sV255773
p1179
I01
sV105467
p1180
I01
sV138692
p1181
I01
sV138690
p1182
I01
sV71941
p1183
I01
sV202315
p1184
I01
sV86442
p1185
I01
sV219011
p1186
I01
sV3864
p1187
I01
sV175490
p1188
I01
sV90169
p1189
I01
sV175495
p1190
I01
sV238159
p1191
I01
sV168588
p1192
I01
sV168584
p1193
I01
sV207164
p1194
I01
sV28448
p1195
I01
sV14493
p1196
I01
sV193781
p1197
I01
sV33914
p1198
I01
sV153702
p1199
I01
sV183345
p1200
I01
sV143673
p1201
I01
sV87060
p1202
I01
sV122261
p1203
I01
sV94422
p1204
I01
sV234817
p1205
I01
sV216385
p1206
I01
sV218493
p1207
I01
sV237352
p1208
I01
sV237350
p1209
I01
sV237356
p1210
I01
sV118502
p1211
I01
sV188137
p1212
I01
sV169184
p1213
I01
sV103014
p1214
I01
sV111281
p1215
I01
sV193071
p1216
I01
sV161752
p1217
I01
sV186444
p1218
I01
sV225375
p1219
I01
sV213861
p1220
I01
sV216565
p1221
I01
sV83195
p1222
I01
sV129626
p1223
I01
sV47040
p1224
I01
sV47042
p1225
I01
sV50538
p1226
I01
sV82110
p1227
I01
sV150866
p1228
I01
sV169234
p1229
I01
sV109748
p1230
I01
sV195926
p1231
I01
sV206563
p1232
I01
sV206562
p1233
I01
sV30931
p1234
I01
sV30936
p1235
I01
sV110880
p1236
I01
sV238482
p1237
I01
sV31511
p1238
I01
sV31510
p1239
I01
sV171138
p1240
I01
sV170512
p1241
I01
sV239359
p1242
I01
sV161361
p1243
I01
sV245069
p1244
I01
sV193444
p1245
I01
sV200927
p1246
I01
sV88313
p1247
I01
sV107952
p1248
I01
sV39071
p1249
I01
sV225990
p1250
I01
sV107956
p1251
I01
sV260887
p1252
I01
sV177390
p1253
I01
sV130970
p1254
I01
sV187314
p1255
I01
sV145284
p1256
I01
sV110085
p1257
I01
sV224025
p1258
I01
sV221015
p1259
I01
sV117833
p1260
I01
sV32761
p1261
I01
sV143620
p1262
I01
sV220632
p1263
I01
sV149289
p1264
I01
sV241727
p1265
I01
sV263924
p1266
I01
sV159314
p1267
I01
sV88640
p1268
I01
sV201782
p1269
I01
sV133411
p1270
I01
sV219835
p1271
I01
sV135610
p1272
I01
sV27800
p1273
I01
sV150685
p1274
I01
sV150683
p1275
I01
sV103811
p1276
I01
sV68089
p1277
I01
sV90422
p1278
I01
sV114617
p1279
I01
sV90421
p1280
I01
sV172605
p1281
I01
sV93456
p1282
I01
sV230955
p1283
I01
sV235471
p1284
I01
sV205555
p1285
I01
sV227369
p1286
I01
sV222700
p1287
I01
sV128227
p1288
I01
sV17126
p1289
I01
sV53917
p1290
I01
sV158036
p1291
I01
sV102823
p1292
I01
sV104799
p1293
I01
sV128219
p1294
I01
sV235215
p1295
I01
sV20124
p1296
I01
sV105447
p1297
I01
sV232085
p1298
I01
sV188476
p1299
I01
sV124538
p1300
I01
sV203782
p1301
I01
sV203600
p1302
I01
sV194098
p1303
I01
sV251429
p1304
I01
sV118882
p1305
I01
sV49386
p1306
I01
sV80401
p1307
I01
sV152682
p1308
I01
sV203526
p1309
I01
sV224395
p1310
I01
sV48037
p1311
I01
sV169750
p1312
I01
sV264663
p1313
I01
sV248237
p1314
I01
sV83699
p1315
I01
sV64817
p1316
I01
sV167975
p1317
I01
sV187556
p1318
I01
sV187555
p1319
I01
sV63172
p1320
I01
sV78379
p1321
I01
sV33762
p1322
I01
sV236747
p1323
I01
sV33760
p1324
I01
sV14803
p1325
I01
sV58923
p1326
I01
sV112627
p1327
I01
sV176608
p1328
I01
sV161693
p1329
I01
sV133682
p1330
I01
sV179364
p1331
I01
sV109913
p1332
I01
sV107174
p1333
I01
sV107175
p1334
I01
sV113937
p1335
I01
sV191924
p1336
I01
sV194405
p1337
I01
sV191923
p1338
I01
sV86589
p1339
I01
sV31721
p1340
I01
sV86581
p1341
I01
sV233680
p1342
I01
sV86584
p1343
I01
sV255546
p1344
I01
sV158680
p1345
I01
sV158689
p1346
I01
sV34008
p1347
I01
sV184112
p1348
I01
sV184110
p1349
I01
sV229222
p1350
I01
sV67279
p1351
I01
sV229227
p1352
I01
sV29989
p1353
I01
sV95272
p1354
I01
sV178988
p1355
I01
sV107016
p1356
I01
sV151308
p1357
I01
sV151655
p1358
I01
sV234481
p1359
I01
sV169537
p1360
I01
sV164722
p1361
I01
sV164723
p1362
I01
sV207577
p1363
I01
sV28581
p1364
I01
sV44659
p1365
I01
sV138501
p1366
I01
sV114378
p1367
I01
sV4232
p1368
I01
sV48481
p1369
I01
sV160776
p1370
I01
sV160807
p1371
I01
sV79201
p1372
I01
sV222280
p1373
I01
sV72964
p1374
I01
sV234667
p1375
I01
sV91607
p1376
I01
sV91358
p1377
I01
sV35602
p1378
I01
sV50583
p1379
I01
sV55691
p1380
I01
sV73560
p1381
I01
sV118716
p1382
I01
sV126796
p1383
I01
sV20909
p1384
I01
sV181400
p1385
I01
sV132701
p1386
I01
sV183666
p1387
I01
sV214717
p1388
I01
sV127226
p1389
I01
sV189678
p1390
I01
sV61726
p1391
I01
sV103204
p1392
I01
sV215990
p1393
I01
sV244543
p1394
I01
sV215993
p1395
I01
sV25324
p1396
I01
sV120799
p1397
I01
sV114409
p1398
I01
sV215444
p1399
I01
sV60890
p1400
I01
sV217627
p1401
I01
sV140138
p1402
I01
sV163879
p1403
I01
sV195717
p1404
I01
sV51183
p1405
I01
sV213299
p1406
I01
sV70123
p1407
I01
sV214826
p1408
I01
sV215662
p1409
I01
sV195436
p1410
I01
sV55950
p1411
I01
sV171928
p1412
I01
sV82121
p1413
I01
sV189094
p1414
I01
sV88124
p1415
I01
sV223399
p1416
I01
sV166613
p1417
I01
sV237819
p1418
I01
sV205786
p1419
I01
sV14872
p1420
I01
sV189098
p1421
I01
sV56603
p1422
I01
sV56354
p1423
I01
sV71295
p1424
I01
sV93865
p1425
I01
sV7925
p1426
I01
sV221862
p1427
I01
sV176167
p1428
I01
sV121261
p1429
I01
sV63764
p1430
I01
sV223648
p1431
I01
sV38630
p1432
I01
sV223641
p1433
I01
sV223642
p1434
I01
sV261179
p1435
I01
sV204783
p1436
I01
sV124235
p1437
I01
sV64534
p1438
I01
sV36721
p1439
I01
sV246941
p1440
I01
sV246946
p1441
I01
sV80097
p1442
I01
sV128027
p1443
I01
sV125546
p1444
I01
sV63818
p1445
I01
sV63549
p1446
I01
sV182322
p1447
I01
sV49248
p1448
I01
sV200447
p1449
I01
sV46964
p1450
I01
sV21315
p1451
I01
sV49712
p1452
I01
sV49242
p1453
I01
sV249911
p1454
I01
sV141776
p1455
I01
sV116263
p1456
I01
sV22957
p1457
I01
sV199716
p1458
I01
sV162043
p1459
I01
sV90988
p1460
I01
sV202338
p1461
I01
sV71694
p1462
I01
sV71927
p1463
I01
sV168619
p1464
I01
sV163648
p1465
I01
sV44520
p1466
I01
sV202334
p1467
I01
sV44524
p1468
I01
sV82323
p1469
I01
sV14167
p1470
I01
sV106160
p1471
I01
sV264277
p1472
I01
sV106167
p1473
I01
sV222912
p1474
I01
sV244406
p1475
I01
sV164265
p1476
I01
sV36076
p1477
I01
sV38264
p1478
I01
sV199296
p1479
I01
sV114821
p1480
I01
sV36078
p1481
I01
sV33244
p1482
I01
sV54727
p1483
I01
sV142690
p1484
I01
sV189256
p1485
I01
sV78525
p1486
I01
sV94404
p1487
I01
sV94406
p1488
I01
sV62148
p1489
I01
sV234879
p1490
I01
sV3047
p1491
I01
sV143613
p1492
I01
sV87048
p1493
I01
sV155979
p1494
I01
sV115765
p1495
I01
sV87043
p1496
I01
sV216367
p1497
I01
sV216365
p1498
I01
sV67043
p1499
I01
sV132553
p1500
I01
sV66648
p1501
I01
sV236029
p1502
I01
sV242539
p1503
I01
sV242534
p1504
I01
sV109585
p1505
I01
sV264492
p1506
I01
sV41718
p1507
I01
sV83465
p1508
I01
sV245623
p1509
I01
sV245620
p1510
I01
sV123951
p1511
I01
sV216508
p1512
I01
sV218743
p1513
I01
sV263721
p1514
I01
sV242758
p1515
I01
sV28938
p1516
I01
sV47719
p1517
I01
sV262895
p1518
I01
sV136410
p1519
I01
sV15436
p1520
I01
sV115183
p1521
I01
sV30916
p1522
I01
sV82138
p1523
I01
sV213598
p1524
I01
sV8130
p1525
I01
sV257774
p1526
I01
sV119383
p1527
I01
sV206547
p1528
I01
sV233476
p1529
I01
sV178794
p1530
I01
sV50775
p1531
I01
sV171113
p1532
I01
sV31062
p1533
I01
sV50770
p1534
I01
sV228082
p1535
I01
sV117729
p1536
I01
sV170573
p1537
I01
sV170571
p1538
I01
sV157159
p1539
I01
sV19196
p1540
I01
sV189799
p1541
I01
sV229960
p1542
I01
sV111403
p1543
I01
sV224043
p1544
I01
sV257906
p1545
I01
sV103222
p1546
I01
sV39097
p1547
I01
sV73997
p1548
I01
sV224518
p1549
I01
sV100252
p1550
I01
sV257900
p1551
I01
sV24447
p1552
I01
sV24445
p1553
I01
sV180412
p1554
I01
sV180413
p1555
I01
sV187370
p1556
I01
sV213335
p1557
I01
sV61553
p1558
I01
sV150518
p1559
I01
sV26819
p1560
I01
sV189429
p1561
I01
sV250461
p1562
I01
sV119738
p1563
I01
sV180409
p1564
I01
sV77439
p1565
I01
sV13775
p1566
I01
sV172597
p1567
I01
sV197817
p1568
I01
sV160060
p1569
I01
sV235456
p1570
I01
sV201276
p1571
I01
sV90404
p1572
I01
sV183233
p1573
I01
sV51641
p1574
I01
sV19221
p1575
I01
sV235181
p1576
I01
sV220619
p1577
I01
sV220349
p1578
I01
sV17452
p1579
I01
sV116183
p1580
I01
sV17457
p1581
I01
sV246534
p1582
I01
sV227347
p1583
I01
sV170995
p1584
I01
sV196852
p1585
I01
sV149469
p1586
I01
sV244755
p1587
I01
sV186227
p1588
I01
sV4454
p1589
I01
sV116674
p1590
I01
sV127065
p1591
I01
sV260498
p1592
I01
sV251221
p1593
I01
sV235985
p1594
I01
sV952
p1595
I01
sV956
p1596
I01
sV253844
p1597
I01
sV42091
p1598
I01
sV128230
p1599
I01
sV85364
p1600
I01
sV204197
p1601
I01
sV41275
p1602
I01
sV41270
p1603
I01
sV260636
p1604
I01
sV237583
p1605
I01
sV163074
p1606
I01
sV44737
p1607
I01
sV174652
p1608
I01
sV85149
p1609
I01
sV80428
p1610
I01
sV200052
p1611
I01
sV205577
p1612
I01
sV205574
p1613
I01
sV265045
p1614
I01
sV135492
p1615
I01
sV6339
p1616
I01
sV162706
p1617
I01
sV59891
p1618
I01
sV167953
p1619
I01
sV179567
p1620
I01
sV59728
p1621
I01
sV41017
p1622
I01
sV9675
p1623
I01
sV9676
p1624
I01
sV39655
p1625
I01
sV57946
p1626
I01
sV78310
p1627
I01
sV247226
p1628
I01
sV63158
p1629
I01
sV187575
p1630
I01
sV187577
p1631
I01
sV198459
p1632
I01
sV163258
p1633
I01
sV63150
p1634
I01
sV63151
p1635
I01
sV33748
p1636
I01
sV176339
p1637
I01
sV112609
p1638
I01
sV176626
p1639
I01
sV179307
p1640
I01
sV115373
p1641
I01
sV133094
p1642
I01
sV7127
p1643
I01
sV113913
p1644
I01
sV152008
p1645
I01
sV113910
p1646
I01
sV219197
p1647
I01
sV214591
p1648
I01
sV193145
p1649
I01
sV219199
p1650
I01
sV216330
p1651
I01
sV13765
p1652
I01
sV68737
p1653
I01
sV156586
p1654
I01
sV115515
p1655
I01
sV156853
p1656
I01
sV40638
p1657
I01
sV24277
p1658
I01
sV149375
p1659
I01
sV187149
p1660
I01
sV202106
p1661
I01
sV40636
p1662
I01
sV137737
p1663
I01
sV58411
p1664
I01
sV109456
p1665
I01
sV58416
p1666
I01
sV212674
p1667
I01
sV47948
p1668
I01
sV164700
p1669
I01
sV76064
p1670
I01
sV68550
p1671
I01
sV34248
p1672
I01
sV216999
p1673
I01
sV129870
p1674
I01
sV263558
p1675
I01
sV108371
p1676
I01
sV197154
p1677
I01
sV54220
p1678
I01
sV207337
p1679
I01
sV207884
p1680
I01
sV230113
p1681
I01
sV254894
p1682
I01
sV34023
p1683
I01
sV144056
p1684
I01
sV30071
p1685
I01
sV229756
p1686
I01
sV72903
p1687
I01
sV106964
p1688
I01
sV76283
p1689
I01
sV222910
p1690
I01
sV106967
p1691
I01
sV50466
p1692
I01
sV228404
p1693
I01
sV262397
p1694
I01
sV185225
p1695
I01
sV201486
p1696
I01
sV109392
p1697
I01
sV55399
p1698
I01
sV256829
p1699
I01
sV32974
p1700
I01
sV55392
p1701
I01
sV206684
p1702
I01
sV206680
p1703
I01
sV206683
p1704
I01
sV225053
p1705
I01
sV189656
p1706
I01
sV225054
p1707
I01
sV130723
p1708
I01
sV78651
p1709
I01
sV25308
p1710
I01
sV145090
p1711
I01
sV221756
p1712
I01
sV23430
p1713
I01
sV74751
p1714
I01
sV150180
p1715
I01
sV234797
p1716
I01
sV205019
p1717
I01
sV82654
p1718
I01
sV214848
p1719
I01
sV214841
p1720
I01
sV16194
p1721
I01
sV139567
p1722
I01
sV16628
p1723
I01
sV32354
p1724
I01
sV114273
p1725
I01
sV16197
p1726
I01
sV16622
p1727
I01
sV185995
p1728
I01
sV259160
p1729
I01
sV166366
p1730
I01
sV88107
p1731
I01
sV64886
p1732
I01
sV221805
p1733
I01
sV93880
p1734
I01
sV93883
p1735
I01
sV13232
p1736
I01
sV65422
p1737
I01
sV173464
p1738
I01
sV158538
p1739
I01
sV149368
p1740
I01
sV105694
p1741
I01
sV240441
p1742
I01
sV159126
p1743
I01
sV81305
p1744
I01
sV64083
p1745
I01
sV81300
p1746
I01
sV124783
p1747
I01
sV21485
p1748
I01
sV49731
p1749
I01
sV187965
p1750
I01
sV139381
p1751
I01
sV187968
p1752
I01
sV49228
p1753
I01
sV22936
p1754
I01
sV46902
p1755
I01
sV135803
p1756
I01
sV147931
p1757
I01
sV149773
p1758
I01
sV116240
p1759
I01
sV94056
p1760
I01
sV56956
p1761
I01
sV70057
p1762
I01
sV70504
p1763
I01
sV204504
p1764
I01
sV163628
p1765
I01
sV86644
p1766
I01
sV198020
p1767
I01
sV17715
p1768
I01
sV52701
p1769
I01
sV19239
p1770
I01
sV120914
p1771
I01
sV120917
p1772
I01
sV264251
p1773
I01
sV120919
p1774
I01
sV138380
p1775
I01
sV53251
p1776
I01
sV188881
p1777
I01
sV112160
p1778
I01
sV37907
p1779
I01
sV246070
p1780
I01
sV45900
p1781
I01
sV234855
p1782
I01
sV41489
p1783
I01
sV183308
p1784
I01
sV252244
p1785
I01
sV237398
p1786
I01
sV132578
p1787
I01
sV143433
p1788
I01
sV99594
p1789
I01
sV47882
p1790
I01
sV161717
p1791
I01
sV41731
p1792
I01
sV103054
p1793
I01
sV215242
p1794
I01
sV225642
p1795
I01
sV238110
p1796
I01
sV174276
p1797
I01
sV173267
p1798
I01
sV169274
p1799
I01
sV170085
p1800
I01
sV206215
p1801
I01
sV241894
p1802
I01
sV6920
p1803
I01
sV228366
p1804
I01
sV123179
p1805
I01
sV194613
p1806
I01
sV217347
p1807
I01
sV217344
p1808
I01
sV233499
p1809
I01
sV50282
p1810
I01
sV241094
p1811
I01
sV173190
p1812
I01
sV214691
p1813
I01
sV229943
p1814
I01
sV85377
p1815
I01
sV111463
p1816
I01
sV3428
p1817
I01
sV224064
p1818
I01
sV100502
p1819
I01
sV224062
p1820
I01
sV105693
p1821
I01
sV47081
p1822
I01
sV47083
p1823
I01
sV24421
p1824
I01
sV24422
p1825
I01
sV213311
p1826
I01
sV261706
p1827
I01
sV61579
p1828
I01
sV182494
p1829
I01
sV26351
p1830
I01
sV81465
p1831
I01
sV263967
p1832
I01
sV250407
p1833
I01
sV263963
p1834
I01
sV119713
p1835
I01
sV258171
p1836
I01
sV4000
p1837
I01
sV93276
p1838
I01
sV165711
p1839
I01
sV165715
p1840
I01
sV190825
p1841
I01
sV3620
p1842
I01
sV35414
p1843
I01
sV110330
p1844
I01
sV109271
p1845
I01
sV201299
p1846
I01
sV201292
p1847
I01
sV201291
p1848
I01
sV96178
p1849
I01
sV96171
p1850
I01
sV256588
p1851
I01
sV106371
p1852
I01
sV106374
p1853
I01
sV56035
p1854
I01
sV63832
p1855
I01
sV246516
p1856
I01
sV50238
p1857
I01
sV200327
p1858
I01
sV130062
p1859
I01
sV13364
p1860
I01
sV168455
p1861
I01
sV262611
p1862
I01
sV148364
p1863
I01
sV251753
p1864
I01
sV248604
p1865
I01
sV248605
p1866
I01
sV139174
p1867
I01
sV82849
p1868
I01
sV140305
p1869
I01
sV162497
p1870
I01
sV2466
p1871
I01
sV45597
p1872
I01
sV41257
p1873
I01
sV197763
p1874
I01
sV218225
p1875
I01
sV201925
p1876
I01
sV191062
p1877
I01
sV99262
p1878
I01
sV185449
p1879
I01
sV212129
p1880
I01
sV125995
p1881
I01
sV139719
p1882
I01
sV166006
p1883
I01
sV205597
p1884
I01
sV139712
p1885
I01
sV173856
p1886
I01
sV139716
p1887
I01
sV199527
p1888
I01
sV59876
p1889
I01
sV132971
p1890
I01
sV204241
p1891
I01
sV36998
p1892
I01
sV9656
p1893
I01
sV113683
p1894
I01
sV21743
p1895
I01
sV71246
p1896
I01
sV247204
p1897
I01
sV249897
p1898
I01
sV249890
p1899
I01
sV8962
p1900
I01
sV149093
p1901
I01
sV105481
p1902
I01
sV243585
p1903
I01
sV172430
p1904
I01
sV232660
p1905
I01
sV115683
p1906
I01
sV168480
p1907
I01
sV252587
p1908
I01
sV102131
p1909
I01
sV233390
p1910
I01
sV159919
p1911
I01
sV78192
p1912
I01
sV26913
p1913
I01
sV251970
p1914
I01
sV159916
p1915
I01
sV251974
p1916
I01
sV255584
p1917
I01
sV226743
p1918
I01
sV223514
p1919
I01
sV1649
p1920
I01
sV226030
p1921
I01
sV84219
p1922
I01
sV164549
p1923
I01
sV169867
p1924
I01
sV255272
p1925
I01
sV169710
p1926
I01
sV133212
p1927
I01
sV133213
p1928
I01
sV40616
p1929
I01
sV83070
p1930
I01
sV198973
p1931
I01
sV248853
p1932
I01
sV83074
p1933
I01
sV162878
p1934
I01
sV202168
p1935
I01
sV2803
p1936
I01
sV202164
p1937
I01
sV157476
p1938
I01
sV3368
p1939
I01
sV3369
p1940
I01
sV28549
p1941
I01
sV47967
p1942
I01
sV47966
p1943
I01
sV160651
p1944
I01
sV3362
p1945
I01
sV74036
p1946
I01
sV164099
p1947
I01
sV164092
p1948
I01
sV13962
p1949
I01
sV13967
p1950
I01
sV238709
p1951
I01
sV5554
p1952
I01
sV197135
p1953
I01
sV147470
p1954
I01
sV258760
p1955
I01
sV242989
p1956
I01
sV258765
p1957
I01
sV103427
p1958
I01
sV170762
p1959
I01
sV79249
p1960
I01
sV91318
p1961
I01
sV111850
p1962
I01
sV8588
p1963
I01
sV144078
p1964
I01
sV144074
p1965
I01
sV154234
p1966
I01
sV59345
p1967
I01
sV31324
p1968
I01
sV114485
p1969
I01
sV110101
p1970
I01
sV23183
p1971
I01
sV179908
p1972
I01
sV23187
p1973
I01
sV132039
p1974
I01
sV165386
p1975
I01
sV23632
p1976
I01
sV27748
p1977
I01
sV15062
p1978
I01
sV71679
p1979
I01
sV25928
p1980
I01
sV73832
p1981
I01
sV3505
p1982
I01
sV180350
p1983
I01
sV117682
p1984
I01
sV262118
p1985
I01
sV72432
p1986
I01
sV117688
p1987
I01
sV82676
p1988
I01
sV92843
p1989
I01
sV39116
p1990
I01
sV194809
p1991
I01
sV206000
p1992
I01
sV7508
p1993
I01
sV206005
p1994
I01
sV74554
p1995
I01
sV74556
p1996
I01
sV165968
p1997
I01
sV259142
p1998
I01
sV259630
p1999
I01
sV32333
p2000
I01
sV84854
p2001
I01
sV84853
p2002
I01
sV221773
p2003
I01
sV221776
p2004
I01
sV224308
p2005
I01
sV124012
p2006
I01
sV100994
p2007
I01
sV21170
p2008
I01
sV221823
p2009
I01
sV220429
p2010
I01
sV125763
p2011
I01
sV231256
p2012
I01
sV236579
p2013
I01
sV24980
p2014
I01
sV204747
p2015
I01
sV81329
p2016
I01
sV154466
p2017
I01
sV81326
p2018
I01
sV69095
p2019
I01
sV259061
p2020
I01
sV135353
p2021
I01
sV135824
p2022
I01
sV42911
p2023
I01
sV190581
p2024
I01
sV22914
p2025
I01
sV190587
p2026
I01
sV167037
p2027
I01
sV138148
p2028
I01
sV4806
p2029
I01
sV214592
p2030
I01
sV45691
p2031
I01
sV191182
p2032
I01
sV167528
p2033
I01
sV90239
p2034
I01
sV199203
p2035
I01
sV162002
p2036
I01
sV102456
p2037
I01
sV58642
p2038
I01
sV234004
p2039
I01
sV58647
p2040
I01
sV18469
p2041
I01
sV246899
p2042
I01
sV122753
p2043
I01
sV232479
p2044
I01
sV70389
p2045
I01
sV172313
p2046
I01
sV260269
p2047
I01
sV113768
p2048
I01
sV146799
p2049
I01
sV149085
p2050
I01
sV113763
p2051
I01
sV122284
p2052
I01
sV122282
p2053
I01
sV62183
p2054
I01
sV54092
p2055
I01
sV176872
p2056
I01
sV203175
p2057
I01
sV62679
p2058
I01
sV126686
p2059
I01
sV62671
p2060
I01
sV194242
p2061
I01
sV194240
p2062
I01
sV252914
p2063
I01
sV213946
p2064
I01
sV163354
p2065
I01
sV163607
p2066
I01
sV198550
p2067
I01
sV168658
p2068
I01
sV146242
p2069
I01
sV202803
p2070
I01
sV224160
p2071
I01
sV138010
p2072
I01
sV127050
p2073
I01
sV213803
p2074
I01
sV29555
p2075
I01
sV191865
p2076
I01
sV191862
p2077
I01
sV71030
p2078
I01
sV32840
p2079
I01
sV178202
p2080
I01
sV231415
p2081
I01
sV51542
p2082
I01
sV72604
p2083
I01
sV239663
p2084
I01
sV194631
p2085
I01
sV15473
p2086
I01
sV144795
p2087
I01
sV174433
p2088
I01
sV174430
p2089
I01
sV180980
p2090
I01
sV110828
p2091
I01
sV95310
p2092
I01
sV180989
p2093
I01
sV44181
p2094
I01
sV188401
p2095
I01
sV226263
p2096
I01
sV66608
p2097
I01
sV188409
p2098
I01
sV66357
p2099
I01
sV229434
p2100
I01
sV111333
p2101
I01
sV131020
p2102
I01
sV189756
p2103
I01
sV8396
p2104
I01
sV144918
p2105
I01
sV159442
p2106
I01
sV77386
p2107
I01
sV40409
p2108
I01
sV67911
p2109
I01
sV108236
p2110
I01
sV24403
p2111
I01
sV244932
p2112
I01
sV136451
p2113
I01
sV1362
p2114
I01
sV475
p2115
I01
sV28204
p2116
I01
sV147665
p2117
I01
sV151427
p2118
I01
sV149381
p2119
I01
sV261725
p2120
I01
sV261726
p2121
I01
sV245220
p2122
I01
sV81402
p2123
I01
sV124731
p2124
I01
sV174926
p2125
I01
sV35782
p2126
I01
sV172558
p2127
I01
sV174929
p2128
I01
sV263983
p2129
I01
sV93257
p2130
I01
sV89171
p2131
I01
sV36318
p2132
I01
sV170203
p2133
I01
sV19156
p2134
I01
sV93784
p2135
I01
sV93785
p2136
I01
sV94201
p2137
I01
sV261852
p2138
I01
sV56231
p2139
I01
sV56230
p2140
I01
sV145111
p2141
I01
sV110312
p2142
I01
sV130883
p2143
I01
sV43186
p2144
I01
sV74217
p2145
I01
sV101168
p2146
I01
sV185075
p2147
I01
sV230420
p2148
I01
sV165591
p2149
I01
sV65875
p2150
I01
sV220308
p2151
I01
sV155700
p2152
I01
sV65873
p2153
I01
sV55589
p2154
I01
sV140094
p2155
I01
sV52006
p2156
I01
sV25115
p2157
I01
sV117094
p2158
I01
sV158003
p2159
I01
sV80207
p2160
I01
sV85975
p2161
I01
sV253889
p2162
I01
sV75837
p2163
I01
sV253881
p2164
I01
sV139482
p2165
I01
sV42584
p2166
I01
sV200234
p2167
I01
sV2442
p2168
I01
sV243358
p2169
I01
sV7867
p2170
I01
sV65803
p2171
I01
sV146498
p2172
I01
sV191049
p2173
I01
sV194034
p2174
I01
sV119093
p2175
I01
sV57181
p2176
I01
sV117321
p2177
I01
sV265003
p2178
I01
sV200092
p2179
I01
sV139734
p2180
I01
sV198633
p2181
I01
sV16816
p2182
I01
sV98262
p2183
I01
sV141942
p2184
I01
sV166022
p2185
I01
sV60853
p2186
I01
sV70719
p2187
I01
sV162746
p2188
I01
sV135414
p2189
I01
sV232396
p2190
I01
sV121412
p2191
I01
sV40983
p2192
I01
sV9325
p2193
I01
sV112312
p2194
I01
sV58983
p2195
I01
sV33071
p2196
I01
sV176668
p2197
I01
sV37006
p2198
I01
sV37005
p2199
I01
sV21725
p2200
I01
sV246793
p2201
I01
sV246796
p2202
I01
sV184843
p2203
I01
sV162842
p2204
I01
sV141059
p2205
I01
sV84053
p2206
I01
sV84051
p2207
I01
sV159932
p2208
I01
sV113958
p2209
I01
sV86569
p2210
I01
sV254708
p2211
I01
sV223537
p2212
I01
sV45643
p2213
I01
sV5402
p2214
I01
sV182115
p2215
I01
sV219152
p2216
I01
sV204266
p2217
I01
sV98843
p2218
I01
sV179526
p2219
I01
sV204268
p2220
I01
sV264350
p2221
I01
sV162812
p2222
I01
sV263375
p2223
I01
sV29967
p2224
I01
sV243307
p2225
I01
sV14710
p2226
I01
sV58324
p2227
I01
sV217861
p2228
I01
sV108009
p2229
I01
sV160671
p2230
I01
sV108004
p2231
I01
sV79000
p2232
I01
sV234425
p2233
I01
sV79007
p2234
I01
sV79006
p2235
I01
sV62249
p2236
I01
sV207517
p2237
I01
sV68593
p2238
I01
sV237455
p2239
I01
sV59585
p2240
I01
sV175642
p2241
I01
sV34206
p2242
I01
sV13949
p2243
I01
sV78715
p2244
I01
sV35152
p2245
I01
sV31121
p2246
I01
sV5534
p2247
I01
sV254852
p2248
I01
sV242962
p2249
I01
sV222956
p2250
I01
sV234393
p2251
I01
sV106923
p2252
I01
sV83056
p2253
I01
sV156813
p2254
I01
sV67745
p2255
I01
sV83051
p2256
I01
sV243153
p2257
I01
sV183530
p2258
I01
sV252709
p2259
I01
sV67218
p2260
I01
sV66167
p2261
I01
sV151092
p2262
I01
sV66163
p2263
I01
sV258837
p2264
I01
sV181970
p2265
I01
sV104505
p2266
I01
sV106391
p2267
I01
sV169331
p2268
I01
sV23612
p2269
I01
sV47324
p2270
I01
sV196305
p2271
I01
sV161102
p2272
I01
sV27766
p2273
I01
sV61740
p2274
I01
sV206397
p2275
I01
sV25946
p2276
I01
sV262130
p2277
I01
sV74715
p2278
I01
sV151895
p2279
I01
sV72415
p2280
I01
sV72419
p2281
I01
sV79679
p2282
I01
sV140154
p2283
I01
sV177255
p2284
I01
sV196245
p2285
I01
sV166526
p2286
I01
sV110123
p2287
I01
sV68717
p2288
I01
sV98768
p2289
I01
sV194860
p2290
I01
sV145328
p2291
I01
sV51295
p2292
I01
sV32640
p2293
I01
sV14643
p2294
I01
sV55249
p2295
I01
sV104387
p2296
I01
sV165906
p2297
I01
sV88141
p2298
I01
sV88148
p2299
I01
sV82581
p2300
I01
sV257085
p2301
I01
sV131270
p2302
I01
sV52920
p2303
I01
sV245840
p2304
I01
sV25613
p2305
I01
sV120048
p2306
I01
sV180374
p2307
I01
sV154661
p2308
I01
sV60830
p2309
I01
sV200397
p2310
I01
sV181025
p2311
I01
sV198365
p2312
I01
sV220447
p2313
I01
sV219938
p2314
I01
sV158570
p2315
I01
sV182284
p2316
I01
sV65464
p2317
I01
sV231274
p2318
I01
sV159165
p2319
I01
sV162242
p2320
I01
sV81346
p2321
I01
sV119525
p2322
I01
sV257883
p2323
I01
sV240489
p2324
I01
sV201556
p2325
I01
sV230891
p2326
I01
sV43516
p2327
I01
sV192097
p2328
I01
sV120559
p2329
I01
sV205416
p2330
I01
sV46274
p2331
I01
sV225864
p2332
I01
sV135371
p2333
I01
sV42934
p2334
I01
sV17281
p2335
I01
sV158418
p2336
I01
sV192540
p2337
I01
sV70015
p2338
I01
sV167506
p2339
I01
sV90256
p2340
I01
sV152542
p2341
I01
sV217343
p2342
I01
sV30065
p2343
I01
sV33443
p2344
I01
sV236804
p2345
I01
sV197685
p2346
I01
sV110840
p2347
I01
sV153235
p2348
I01
sV20649
p2349
I01
sV27968
p2350
I01
sV175414
p2351
I01
sV91323
p2352
I01
sV17751
p2353
I01
sV17750
p2354
I01
sV172378
p2355
I01
sV81969
p2356
I01
sV118926
p2357
I01
sV260243
p2358
I01
sV53290
p2359
I01
sV260247
p2360
I01
sV53298
p2361
I01
sV60654
p2362
I01
sV128040
p2363
I01
sV37378
p2364
I01
sV84647
p2365
I01
sV34766
p2366
I01
sV176228
p2367
I01
sV20465
p2368
I01
sV203151
p2369
I01
sV34940
p2370
I01
sV7325
p2371
I01
sV39775
p2372
I01
sV248339
p2373
I01
sV99432
p2374
I01
sV194269
p2375
I01
sV39779
p2376
I01
sV259809
p2377
I01
sV228146
p2378
I01
sV108929
p2379
I01
sV228145
p2380
I01
sV109520
p2381
I01
sV146108
p2382
I01
sV41776
p2383
I01
sV256313
p2384
I01
sV171315
p2385
I01
sV171314
p2386
I01
sV107679
p2387
I01
sV7065
p2388
I01
sV33990
p2389
I01
sV223493
p2390
I01
sV176857
p2391
I01
sV33994
p2392
I01
sV226468
p2393
I01
sV176854
p2394
I01
sV226465
p2395
I01
sV89519
p2396
I01
sV231472
p2397
I01
sV229186
p2398
I01
sV237868
p2399
I01
sV229633
p2400
I01
sV194651
p2401
I01
sV146913
p2402
I01
sV184059
p2403
I01
sV206252
p2404
I01
sV57590
p2405
I01
sV26709
p2406
I01
sV189822
p2407
I01
sV136619
p2408
I01
sV189829
p2409
I01
sV242225
p2410
I01
sV55388
p2411
I01
sV143231
p2412
I01
sV245022
p2413
I01
sV178482
p2414
I01
sV192308
p2415
I01
sV212484
p2416
I01
sV151407
p2417
I01
sV66084
p2418
I01
sV212480
p2419
I01
sV199825
p2420
I01
sV38163
p2421
I01
sV1384
p2422
I01
sV219452
p2423
I01
sV28737
p2424
I01
sV249193
p2425
I01
sV62819
p2426
I01
sV94569
p2427
I01
sV245247
p2428
I01
sV232925
p2429
I01
sV77106
p2430
I01
sV228581
p2431
I01
sV172577
p2432
I01
sV132466
p2433
I01
sV201709
p2434
I01
sV165758
p2435
I01
sV197879
p2436
I01
sV201700
p2437
I01
sV201702
p2438
I01
sV188284
p2439
I01
sV197871
p2440
I01
sV201706
p2441
I01
sV188280
p2442
I01
sV259841
p2443
I01
sV155090
p2444
I01
sV170593
p2445
I01
sV55744
p2446
I01
sV107841
p2447
I01
sV60338
p2448
I01
sV116437
p2449
I01
sV56216
p2450
I01
sV116435
p2451
I01
sV230401
p2452
I01
sV114695
p2453
I01
sV74483
p2454
I01
sV130313
p2455
I01
sV145174
p2456
I01
sV230408
p2457
I01
sV19280
p2458
I01
sV51623
p2459
I01
sV104461
p2460
I01
sV189482
p2461
I01
sV82081
p2462
I01
sV65850
p2463
I01
sV214432
p2464
I01
sV37194
p2465
I01
sV82734
p2466
I01
sV65675
p2467
I01
sV82088
p2468
I01
sV150572
p2469
I01
sV25135
p2470
I01
sV120562
p2471
I01
sV186930
p2472
I01
sV25130
p2473
I01
sV215215
p2474
I01
sV124606
p2475
I01
sV222786
p2476
I01
sV260479
p2477
I01
sV69353
p2478
I01
sV74454
p2479
I01
sV74104
p2480
I01
sV74451
p2481
I01
sV53994
p2482
I01
sV81768
p2483
I01
sV139133
p2484
I01
sV46062
p2485
I01
sV82558
p2486
I01
sV261876
p2487
I01
sV193555
p2488
I01
sV53190
p2489
I01
sV121387
p2490
I01
sV16832
p2491
I01
sV191020
p2492
I01
sV191022
p2493
I01
sV93901
p2494
I01
sV195229
p2495
I01
sV223163
p2496
I01
sV61823
p2497
I01
sV247793
p2498
I01
sV247795
p2499
I01
sV141927
p2500
I01
sV163820
p2501
I01
sV95681
p2502
I01
sV9349
p2503
I01
sV26356
p2504
I01
sV21705
p2505
I01
sV135780
p2506
I01
sV261356
p2507
I01
sV90892
p2508
I01
sV212973
p2509
I01
sV203700
p2510
I01
sV138268
p2511
I01
sV134566
p2512
I01
sV257529
p2513
I01
sV86506
p2514
I01
sV243090
p2515
I01
sV243544
p2516
I01
sV85708
p2517
I01
sV26951
p2518
I01
sV223552
p2519
I01
sV149581
p2520
I01
sV219138
p2521
I01
sV96889
p2522
I01
sV3229
p2523
I01
sV157656
p2524
I01
sV158600
p2525
I01
sV167316
p2526
I01
sV151761
p2527
I01
sV237297
p2528
I01
sV138403
p2529
I01
sV264374
p2530
I01
sV204281
p2531
I01
sV78480
p2532
I01
sV40302
p2533
I01
sV263683
p2534
I01
sV178673
p2535
I01
sV3323
p2536
I01
sV54358
p2537
I01
sV76110
p2538
I01
sV219685
p2539
I01
sV14034
p2540
I01
sV252544
p2541
I01
sV175624
p2542
I01
sV178018
p2543
I01
sV242942
p2544
I01
sV78735
p2545
I01
sV38285
p2546
I01
sV207395
p2547
I01
sV190823
p2548
I01
sV132257
p2549
I01
sV85853
p2550
I01
sV34082
p2551
I01
sV87635
p2552
I01
sV222209
p2553
I01
sV29901
p2554
I01
sV156528
p2555
I01
sV243895
p2556
I01
sV129725
p2557
I01
sV252763
p2558
I01
sV156523
p2559
I01
sV242055
p2560
I01
sV212741
p2561
I01
sV23672
p2562
I01
sV23675
p2563
I01
sV48931
p2564
I01
sV87756
p2565
I01
sV181958
p2566
I01
sV150960
p2567
I01
sV181953
p2568
I01
sV129892
p2569
I01
sV15021
p2570
I01
sV196326
p2571
I01
sV59307
p2572
I01
sV174576
p2573
I01
sV29637
p2574
I01
sV156745
p2575
I01
sV174578
p2576
I01
sV34317
p2577
I01
sV74738
p2578
I01
sV3811
p2579
I01
sV23498
p2580
I01
sV195791
p2581
I01
sV195790
p2582
I01
sV222662
p2583
I01
sV193301
p2584
I01
sV196226
p2585
I01
sV8450
p2586
I01
sV72471
p2587
I01
sV259984
p2588
I01
sV239035
p2589
I01
sV76172
p2590
I01
sV115869
p2591
I01
sV91440
p2592
I01
sV259155
p2593
I01
sV192750
p2594
I01
sV76175
p2595
I01
sV187074
p2596
I01
sV50509
p2597
I01
sV187070
p2598
I01
sV31366
p2599
I01
sV110148
p2600
I01
sV19685
p2601
I01
sV224692
p2602
I01
sV103827
p2603
I01
sV259185
p2604
I01
sV103821
p2605
I01
sV51902
p2606
I01
sV259189
p2607
I01
sV103829
p2608
I01
sV6169
p2609
I01
sV131257
p2610
I01
sV182738
p2611
I01
sV255835
p2612
I01
sV65196
p2613
I01
sV60811
p2614
I01
sV249032
p2615
I01
sV31561
p2616
I01
sV56686
p2617
I01
sV201393
p2618
I01
sV151214
p2619
I01
sV180399
p2620
I01
sV195405
p2621
I01
sV24610
p2622
I01
sV180396
p2623
I01
sV224346
p2624
I01
sV181048
p2625
I01
sV198479
p2626
I01
sV135578
p2627
I01
sV21131
p2628
I01
sV135573
p2629
I01
sV234351
p2630
I01
sV255177
p2631
I01
sV261467
p2632
I01
sV141269
p2633
I01
sV114736
p2634
I01
sV114737
p2635
I01
sV162225
p2636
I01
sV162229
p2637
I01
sV86881
p2638
I01
sV172740
p2639
I01
sV191239
p2640
I01
sV230879
p2641
I01
sV97676
p2642
I01
sV97677
p2643
I01
sV98543
p2644
I01
sV116772
p2645
I01
sV142834
p2646
I01
sV106256
p2647
I01
sV17515
p2648
I01
sV249444
p2649
I01
sV25097
p2650
I01
sV90908
p2651
I01
sV85280
p2652
I01
sV66960
p2653
I01
sV64894
p2654
I01
sV220469
p2655
I01
sV17776
p2656
I01
sV17774
p2657
I01
sV105506
p2658
I01
sV141488
p2659
I01
sV172358
p2660
I01
sV60678
p2661
I01
sV60679
p2662
I01
sV20660
p2663
I01
sV172350
p2664
I01
sV20665
p2665
I01
sV251032
p2666
I01
sV146066
p2667
I01
sV133817
p2668
I01
sV42954
p2669
I01
sV139671
p2670
I01
sV80017
p2671
I01
sV251525
p2672
I01
sV80541
p2673
I01
sV20442
p2674
I01
sV48446
p2675
I01
sV211580
p2676
I01
sV193898
p2677
I01
sV56036
p2678
I01
sV216679
p2679
I01
sV9285
p2680
I01
sV218432
p2681
I01
sV218433
p2682
I01
sV95740
p2683
I01
sV216675
p2684
I01
sV241081
p2685
I01
sV236825
p2686
I01
sV168839
p2687
I01
sV168831
p2688
I01
sV71343
p2689
I01
sV245309
p2690
I01
sV175290
p2691
I01
sV237085
p2692
I01
sV237082
p2693
I01
sV15614
p2694
I01
sV164331
p2695
I01
sV109502
p2696
I01
sV76341
p2697
I01
sV123990
p2698
I01
sV113852
p2699
I01
sV70960
p2700
I01
sV156192
p2701
I01
sV53419
p2702
I01
sV233745
p2703
I01
sV121626
p2704
I01
sV174744
p2705
I01
sV171336
p2706
I01
sV226199
p2707
I01
sV112107
p2708
I01
sV255602
p2709
I01
sV142616
p2710
I01
sV112108
p2711
I01
sV236567
p2712
I01
sV61976
p2713
I01
sV35268
p2714
I01
sV223432
p2715
I01
sV229612
p2716
I01
sV229613
p2717
I01
sV34437
p2718
I01
sV123198
p2719
I01
sV50266
p2720
I01
sV26723
p2721
I01
sV50263
p2722
I01
sV123195
p2723
I01
sV171198
p2724
I01
sV126012
p2725
I01
sV212176
p2726
I01
sV212175
p2727
I01
sV66317
p2728
I01
sV226998
p2729
I01
sV65066
p2730
I01
sV68922
p2731
I01
sV158831
p2732
I01
sV47828
p2733
I01
sV68929
p2734
I01
sV217985
p2735
I01
sV228000
p2736
I01
sV182897
p2737
I01
sV129979
p2738
I01
sV131060
p2739
I01
sV131066
p2740
I01
sV183767
p2741
I01
sV192855
p2742
I01
sV192850
p2743
I01
sV192853
p2744
I01
sV137540
p2745
I01
sV151178
p2746
I01
sV108272
p2747
I01
sV72866
p2748
I01
sV79343
p2749
I01
sV106888
p2750
I01
sV207725
p2751
I01
sV79348
p2752
I01
sV177597
p2753
I01
sV113025
p2754
I01
sV201768
p2755
I01
sV145487
p2756
I01
sV145485
p2757
I01
sV19115
p2758
I01
sV220124
p2759
I01
sV93749
p2760
I01
sV185384
p2761
I01
sV111486
p2762
I01
sV214987
p2763
I01
sV144280
p2764
I01
sV103341
p2765
I01
sV155071
p2766
I01
sV35471
p2767
I01
sV35472
p2768
I01
sV244206
p2769
I01
sV35478
p2770
I01
sV107824
p2771
I01
sV244400
p2772
I01
sV230463
p2773
I01
sV101614
p2774
I01
sV218984
p2775
I01
sV185036
p2776
I01
sV126909
p2777
I01
sV130334
p2778
I01
sV195674
p2779
I01
sV140502
p2780
I01
sV27138
p2781
I01
sV181821
p2782
I01
sV260417
p2783
I01
sV135347
p2784
I01
sV43499
p2785
I01
sV215764
p2786
I01
sV240560
p2787
I01
sV262671
p2788
I01
sV135345
p2789
I01
sV251738
p2790
I01
sV253143
p2791
I01
sV251734
p2792
I01
sV173605
p2793
I01
sV135148
p2794
I01
sV166202
p2795
I01
sV135140
p2796
I01
sV253591
p2797
I01
sV56274
p2798
I01
sV97063
p2799
I01
sV227477
p2800
I01
sV97061
p2801
I01
sV261895
p2802
I01
sV95510
p2803
I01
sV90598
p2804
I01
sV87234
p2805
I01
sV39965
p2806
I01
sV201983
p2807
I01
sV19803
p2808
I01
sV21096
p2809
I01
sV195243
p2810
I01
sV21093
p2811
I01
sV121368
p2812
I01
sV21090
p2813
I01
sV21099
p2814
I01
sV231331
p2815
I01
sV206530
p2816
I01
sV52591
p2817
I01
sV227617
p2818
I01
sV251194
p2819
I01
sV113628
p2820
I01
sV113624
p2821
I01
sV49185
p2822
I01
sV37518
p2823
I01
sV200589
p2824
I01
sV62734
p2825
I01
sV84010
p2826
I01
sV249781
p2827
I01
sV56893
p2828
I01
sV84015
p2829
I01
sV56899
p2830
I01
sV255034
p2831
I01
sV138248
p2832
I01
sV2155
p2833
I01
sV250028
p2834
I01
sV134234
p2835
I01
sV203726
p2836
I01
sV2158
p2837
I01
sV138797
p2838
I01
sV192669
p2839
I01
sV198182
p2840
I01
sV152086
p2841
I01
sV202451
p2842
I01
sV133015
p2843
I01
sV202981
p2844
I01
sV202452
p2845
I01
sV190750
p2846
I01
sV255296
p2847
I01
sV58149
p2848
I01
sV113881
p2849
I01
sV160329
p2850
I01
sV14067
p2851
I01
sV197524
p2852
I01
sV58146
p2853
I01
sV223577
p2854
I01
sV106067
p2855
I01
sV94600
p2856
I01
sV106062
p2857
I01
sV102994
p2858
I01
sV203858
p2859
I01
sV70204
p2860
I01
sV167337
p2861
I01
sV237275
p2862
I01
sV250548
p2863
I01
sV203854
p2864
I01
sV176952
p2865
I01
sV71156
p2866
I01
sV202670
p2867
I01
sV163434
p2868
I01
sV168313
p2869
I01
sV168310
p2870
I01
sV58369
p2871
I01
sV5496
p2872
I01
sV14206
p2873
I01
sV175602
p2874
I01
sV186096
p2875
I01
sV175357
p2876
I01
sV246171
p2877
I01
sV94746
p2878
I01
sV232179
p2879
I01
sV196870
p2880
I01
sV146543
p2881
I01
sV237412
p2882
I01
sV136797
p2883
I01
sV242924
p2884
I01
sV78755
p2885
I01
sV614
p2886
I01
sV256672
p2887
I01
sV90207
p2888
I01
sV256679
p2889
I01
sV156505
p2890
I01
sV196878
p2891
I01
sV133274
p2892
I01
sV29382
p2893
I01
sV44375
p2894
I01
sV40852
p2895
I01
sV137226
p2896
I01
sV216448
p2897
I01
sV29435
p2898
I01
sV97558
p2899
I01
sV216441
p2900
I01
sV178658
p2901
I01
sV198039
p2902
I01
sV89588
p2903
I01
sV66120
p2904
I01
sV132058
p2905
I01
sV89587
p2906
I01
sV231545
p2907
I01
sV175976
p2908
I01
sV30383
p2909
I01
sV27728
p2910
I01
sV150909
p2911
I01
sV156761
p2912
I01
sV206608
p2913
I01
sV156764
p2914
I01
sV206354
p2915
I01
sV233225
p2916
I01
sV178036
p2917
I01
sV31165
p2918
I01
sV178038
p2919
I01
sV213454
p2920
I01
sV259470
p2921
I01
sV207916
p2922
I01
sV88984
p2923
I01
sV88985
p2924
I01
sV34606
p2925
I01
sV257107
p2926
I01
sV73586
p2927
I01
sV92355
p2928
I01
sV7569
p2929
I01
sV50523
p2930
I01
sV145362
p2931
I01
sV50520
p2932
I01
sV189037
p2933
I01
sV127174
p2934
I01
sV61470
p2935
I01
sV61473
p2936
I01
sV117193
p2937
I01
sV155688
p2938
I01
sV84832
p2939
I01
sV29966
p2940
I01
sV189522
p2941
I01
sV189525
p2942
I01
sV22292
p2943
I01
sV120770
p2944
I01
sV107422
p2945
I01
sV26455
p2946
I01
sV257046
p2947
I01
sV165492
p2948
I01
sV115417
p2949
I01
sV165499
p2950
I01
sV82969
p2951
I01
sV77665
p2952
I01
sV204851
p2953
I01
sV237165
p2954
I01
sV101266
p2955
I01
sV104342
p2956
I01
sV150583
p2957
I01
sV97654
p2958
I01
sV110212
p2959
I01
sV192583
p2960
I01
sV175443
p2961
I01
sV13407
p2962
I01
sV240191
p2963
I01
sV106273
p2964
I01
sV116715
p2965
I01
sV113203
p2966
I01
sV148285
p2967
I01
sV66887
p2968
I01
sV140261
p2969
I01
sV104162
p2970
I01
sV152500
p2971
I01
sV72316
p2972
I01
sV246340
p2973
I01
sV52789
p2974
I01
sV134937
p2975
I01
sV17795
p2976
I01
sV62927
p2977
I01
sV106188
p2978
I01
sV62435
p2979
I01
sV25215
p2980
I01
sV104037
p2981
I01
sV25211
p2982
I01
sV64370
p2983
I01
sV124470
p2984
I01
sV60693
p2985
I01
sV194199
p2986
I01
sV118962
p2987
I01
sV254029
p2988
I01
sV185520
p2989
I01
sV139651
p2990
I01
sV200136
p2991
I01
sV200131
p2992
I01
sV163152
p2993
I01
sV163155
p2994
I01
sV134062
p2995
I01
sV48469
p2996
I01
sV218451
p2997
I01
sV57641
p2998
I01
sV83954
p2999
I01
sV194223
p3000
I01
sV252973
p3001
I01
sV71367
p3002
I01
sV71360
p3003
I01
sV71361
p3004
I01
sV163333
p3005
I01
sV44584
p3006
I01
sV221992
p3007
I01
sV190691
p3008
I01
sV236667
p3009
I01
sV236845
p3010
I01
sV102136
p3011
I01
sV70944
p3012
I01
sV30177
p3013
I01
sV161797
p3014
I01
sV179713
p3015
I01
sV7029
p3016
I01
sV176896
p3017
I01
sV49840
p3018
I01
sV63343
p3019
I01
sV78584
p3020
I01
sV21518
p3021
I01
sV233764
p3022
I01
sV54788
p3023
I01
sV255374
p3024
I01
sV15713
p3025
I01
sV78190
p3026
I01
sV37721
p3027
I01
sV84608
p3028
I01
sV45916
p3029
I01
sV252355
p3030
I01
sV115437
p3031
I01
sV174499
p3032
I01
sV202249
p3033
I01
sV180928
p3034
I01
sV47804
p3035
I01
sV89860
p3036
I01
sV197757
p3037
I01
sV47801
p3038
I01
sV169141
p3039
I01
sV68277
p3040
I01
sV158813
p3041
I01
sV40467
p3042
I01
sV249228
p3043
I01
sV67428
p3044
I01
sV67426
p3045
I01
sV67427
p3046
I01
sV4379
p3047
I01
sV234777
p3048
I01
sV136962
p3049
I01
sV207212
p3050
I01
sV34450
p3051
I01
sV229670
p3052
I01
sV240379
p3053
I01
sV175010
p3054
I01
sV109786
p3055
I01
sV234230
p3056
I01
sV106864
p3057
I01
sV72662
p3058
I01
sV234234
p3059
I01
sV232963
p3060
I01
sV31442
p3061
I01
sV228818
p3062
I01
sV171718
p3063
I01
sV197344
p3064
I01
sV256984
p3065
I01
sV197349
p3066
I01
sV216689
p3067
I01
sV240371
p3068
I01
sV155059
p3069
I01
sV111351
p3070
I01
sV189739
p3071
I01
sV61646
p3072
I01
sV127346
p3073
I01
sV110407
p3074
I01
sV244225
p3075
I01
sV244221
p3076
I01
sV127142
p3077
I01
sV230448
p3078
I01
sV23826
p3079
I01
sV23358
p3080
I01
sV230444
p3081
I01
sV65817
p3082
I01
sV27112
p3083
I01
sV65810
p3084
I01
sV140071
p3085
I01
sV195611
p3086
I01
sV109129
p3087
I01
sV165682
p3088
I01
sV43965
p3089
I01
sV55693
p3090
I01
sV28820
p3091
I01
sV262696
p3092
I01
sV189195
p3093
I01
sV82596
p3094
I01
sV200833
p3095
I01
sV104578
p3096
I01
sV248852
p3097
I01
sV150462
p3098
I01
sV223121
p3099
I01
sV182509
p3100
I01
sV227632
p3101
I01
sV236471
p3102
I01
sV236473
p3103
I01
sV158258
p3104
I01
sV119979
p3105
I01
sV105773
p3106
I01
sV159025
p3107
I01
sV124640
p3108
I01
sV69312
p3109
I01
sV64141
p3110
I01
sV60196
p3111
I01
sV250597
p3112
I01
sV257904
p3113
I01
sV26248
p3114
I01
sV120529
p3115
I01
sV160267
p3116
I01
sV168059
p3117
I01
sV57341
p3118
I01
sV166883
p3119
I01
sV37537
p3120
I01
sV184821
p3121
I01
sV1857
p3122
I01
sV167680
p3123
I01
sV192644
p3124
I01
sV162418
p3125
I01
sV45322
p3126
I01
sV199616
p3127
I01
sV155881
p3128
I01
sV204136
p3129
I01
sV39273
p3130
I01
sV134131
p3131
I01
sV168153
p3132
I01
sV190228
p3133
I01
sV158643
p3134
I01
sV62595
p3135
I01
sV3265
p3136
I01
sV158647
p3137
I01
sV160301
p3138
I01
sV1938
p3139
I01
sV160305
p3140
I01
sV179019
p3141
I01
sV232378
p3142
I01
sV148496
p3143
I01
sV53844
p3144
I01
sV53846
p3145
I01
sV102208
p3146
I01
sV230280
p3147
I01
sV237781
p3148
I01
sV112802
p3149
I01
sV147381
p3150
I01
sV104994
p3151
I01
sV58341
p3152
I01
sV163457
p3153
I01
sV122470
p3154
I01
sV94723
p3155
I01
sV28540
p3156
I01
sV191169
p3157
I01
sV94729
p3158
I01
sV252503
p3159
I01
sV20039
p3160
I01
sV30270
p3161
I01
sV186077
p3162
I01
sV175370
p3163
I01
sV175377
p3164
I01
sV44170
p3165
I01
sV243055
p3166
I01
sV148879
p3167
I01
sV242908
p3168
I01
sV157782
p3169
I01
sV142408
p3170
I01
sV147160
p3171
I01
sV87673
p3172
I01
sV83747
p3173
I01
sV156568
p3174
I01
sV265165
p3175
I01
sV238032
p3176
I01
sV263319
p3177
I01
sV178634
p3178
I01
sV163775
p3179
I01
sV40871
p3180
I01
sV263643
p3181
I01
sV239782
p3182
I01
sV163777
p3183
I01
sV164103
p3184
I01
sV207688
p3185
I01
sV195868
p3186
I01
sV141232
p3187
I01
sV23105
p3188
I01
sV97827
p3189
I01
sV179902
p3190
I01
sV30818
p3191
I01
sV150923
p3192
I01
sV231553
p3193
I01
sV150925
p3194
I01
sV175950
p3195
I01
sV77861
p3196
I01
sV29676
p3197
I01
sV77866
p3198
I01
sV194736
p3199
I01
sV156781
p3200
I01
sV78771
p3201
I01
sV238789
p3202
I01
sV238969
p3203
I01
sV114952
p3204
I01
sV231908
p3205
I01
sV72302
p3206
I01
sV225383
p3207
I01
sV222860
p3208
I01
sV225381
p3209
I01
sV207971
p3210
I01
sV117600
p3211
I01
sV118657
p3212
I01
sV76080
p3213
I01
sV44822
p3214
I01
sV180025
p3215
I01
sV180022
p3216
I01
sV39193
p3217
I01
sV7587
p3218
I01
sV39197
p3219
I01
sV100116
p3220
I01
sV73861
p3221
I01
sV126753
p3222
I01
sV166242
p3223
I01
sV89749
p3224
I01
sV57428
p3225
I01
sV89878
p3226
I01
sV213075
p3227
I01
sV61451
p3228
I01
sV149389
p3229
I01
sV150254
p3230
I01
sV256994
p3231
I01
sV88224
p3232
I01
sV257023
p3233
I01
sV170876
p3234
I01
sV257029
p3235
I01
sV33086
p3236
I01
sV59295
p3237
I01
sV201353
p3238
I01
sV159233
p3239
I01
sV197289
p3240
I01
sV160488
p3241
I01
sV151253
p3242
I01
sV197285
p3243
I01
sV151251
p3244
I01
sV197280
p3245
I01
sV32389
p3246
I01
sV65371
p3247
I01
sV38958
p3248
I01
sV33733
p3249
I01
sV118647
p3250
I01
sV230837
p3251
I01
sV118640
p3252
I01
sV118648
p3253
I01
sV16142
p3254
I01
sV152276
p3255
I01
sV19657
p3256
I01
sV19308
p3257
I01
sV5912
p3258
I01
sV47679
p3259
I01
sV17226
p3260
I01
sV186850
p3261
I01
sV244412
p3262
I01
sV244417
p3263
I01
sV32163
p3264
I01
sV60501
p3265
I01
sV262736
p3266
I01
sV74081
p3267
I01
sV85249
p3268
I01
sV57591
p3269
I01
sV218060
p3270
I01
sV63259
p3271
I01
sV140714
p3272
I01
sV140717
p3273
I01
sV227159
p3274
I01
sV175508
p3275
I01
sV124324
p3276
I01
sV69106
p3277
I01
sV187478
p3278
I01
sV27902
p3279
I01
sV201827
p3280
I01
sV25230
p3281
I01
sV99369
p3282
I01
sV240242
p3283
I01
sV240246
p3284
I01
sV215047
p3285
I01
sV128751
p3286
I01
sV251070
p3287
I01
sV193705
p3288
I01
sV49284
p3289
I01
sV139634
p3290
I01
sV204309
p3291
I01
sV193859
p3292
I01
sV187475
p3293
I01
sV90369
p3294
I01
sV162628
p3295
I01
sV20957
p3296
I01
sV216635
p3297
I01
sV248357
p3298
I01
sV83977
p3299
I01
sV133331
p3300
I01
sV21685
p3301
I01
sV163688
p3302
I01
sV163689
p3303
I01
sV163685
p3304
I01
sV33178
p3305
I01
sV54812
p3306
I01
sV7134
p3307
I01
sV255175
p3308
I01
sV232528
p3309
I01
sV114480
p3310
I01
sV52177
p3311
I01
sV232524
p3312
I01
sV152126
p3313
I01
sV125322
p3314
I01
sV29082
p3315
I01
sV7006
p3316
I01
sV184696
p3317
I01
sV226409
p3318
I01
sV49860
p3319
I01
sV22885
p3320
I01
sV22887
p3321
I01
sV235670
p3322
I01
sV119348
p3323
I01
sV747
p3324
I01
sV119344
p3325
I01
sV252335
p3326
I01
sV67621
p3327
I01
sV187624
p3328
I01
sV212139
p3329
I01
sV212138
p3330
I01
sV31287
p3331
I01
sV155562
p3332
I01
sV263457
p3333
I01
sV263458
p3334
I01
sV216897
p3335
I01
sV147596
p3336
I01
sV108509
p3337
I01
sV24485
p3338
I01
sV106846
p3339
I01
sV2377
p3340
I01
sV170025
p3341
I01
sV170020
p3342
I01
sV3112
p3343
I01
sV30731
p3344
I01
sV115141
p3345
I01
sV34474
p3346
I01
sV34470
p3347
I01
sV145993
p3348
I01
sV114549
p3349
I01
sV50955
p3350
I01
sV232940
p3351
I01
sV197369
p3352
I01
sV188599
p3353
I01
sV258403
p3354
I01
sV204480
p3355
I01
sV89462
p3356
I01
sV155031
p3357
I01
sV127361
p3358
I01
sV183018
p3359
I01
sV186535
p3360
I01
sV248512
p3361
I01
sV110390
p3362
I01
sV145664
p3363
I01
sV228746
p3364
I01
sV195637
p3365
I01
sV188041
p3366
I01
sV47135
p3367
I01
sV101651
p3368
I01
sV136231
p3369
I01
sV193286
p3370
I01
sV61599
p3371
I01
sV109103
p3372
I01
sV82751
p3373
I01
sV206418
p3374
I01
sV206142
p3375
I01
sV197941
p3376
I01
sV197945
p3377
I01
sV16540
p3378
I01
sV16546
p3379
I01
sV173648
p3380
I01
sV161219
p3381
I01
sV97029
p3382
I01
sV196014
p3383
I01
sV182691
p3384
I01
sV127894
p3385
I01
sV6664
p3386
I01
sV60203
p3387
I01
sV154786
p3388
I01
sV69486
p3389
I01
sV239627
p3390
I01
sV100659
p3391
I01
sV63991
p3392
I01
sV16325
p3393
I01
sV63994
p3394
I01
sV115301
p3395
I01
sV117235
p3396
I01
sV21050
p3397
I01
sV21057
p3398
I01
sV184593
p3399
I01
sV4943
p3400
I01
sV257920
p3401
I01
sV42233
p3402
I01
sV159004
p3403
I01
sV64164
p3404
I01
sV46376
p3405
I01
sV49675
p3406
I01
sV46370
p3407
I01
sV63195
p3408
I01
sV79948
p3409
I01
sV172110
p3410
I01
sV94394
p3411
I01
sV94395
p3412
I01
sV41856
p3413
I01
sV81041
p3414
I01
sV54480
p3415
I01
sV14027
p3416
I01
sV52624
p3417
I01
sV17052
p3418
I01
sV52620
p3419
I01
sV62575
p3420
I01
sV98994
p3421
I01
sV122673
p3422
I01
sV52629
p3423
I01
sV106028
p3424
I01
sV186336
p3425
I01
sV60715
p3426
I01
sV116051
p3427
I01
sV120819
p3428
I01
sV116054
p3429
I01
sV57364
p3430
I01
sV53865
p3431
I01
sV118397
p3432
I01
sV202461
p3433
I01
sV90770
p3434
I01
sV146362
p3435
I01
sV212786
p3436
I01
sV255787
p3437
I01
sV255781
p3438
I01
sV151777
p3439
I01
sV33619
p3440
I01
sV33615
p3441
I01
sV155814
p3442
I01
sV62715
p3443
I01
sV83505
p3444
I01
sV260010
p3445
I01
sV83509
p3446
I01
sV252520
p3447
I01
sV51093
p3448
I01
sV168172
p3449
I01
sV59713
p3450
I01
sV147108
p3451
I01
sV238082
p3452
I01
sV255439
p3453
I01
sV142465
p3454
I01
sV132890
p3455
I01
sV6865
p3456
I01
sV3251
p3457
I01
sV99649
p3458
I01
sV218641
p3459
I01
sV107775
p3460
I01
sV67298
p3461
I01
sV156236
p3462
I01
sV67293
p3463
I01
sV198276
p3464
I01
sV168355
p3465
I01
sV40812
p3466
I01
sV178347
p3467
I01
sV198278
p3468
I01
sV40815
p3469
I01
sV195842
p3470
I01
sV8258
p3471
I01
sV115089
p3472
I01
sV223949
p3473
I01
sV8783
p3474
I01
sV30832
p3475
I01
sV179960
p3476
I01
sV161183
p3477
I01
sV174044
p3478
I01
sV78102
p3479
I01
sV77846
p3480
I01
sV194713
p3481
I01
sV233598
p3482
I01
sV226364
p3483
I01
sV226361
p3484
I01
sV148814
p3485
I01
sV233593
p3486
I01
sV37118
p3487
I01
sV111256
p3488
I01
sV72499
p3489
I01
sV143335
p3490
I01
sV173098
p3491
I01
sV144101
p3492
I01
sV120811
p3493
I01
sV239501
p3494
I01
sV239500
p3495
I01
sV72490
p3496
I01
sV259437
p3497
I01
sV67871
p3498
I01
sV119130
p3499
I01
sV107301
p3500
I01
sV67874
p3501
I01
sV67879
p3502
I01
sV67878
p3503
I01
sV44848
p3504
I01
sV187017
p3505
I01
sV86129
p3506
I01
sV257146
p3507
I01
sV242032
p3508
I01
sV126779
p3509
I01
sV222676
p3510
I01
sV47638
p3511
I01
sV158061
p3512
I01
sV214007
p3513
I01
sV87991
p3514
I01
sV214001
p3515
I01
sV204977
p3516
I01
sV257006
p3517
I01
sV257002
p3518
I01
sV201335
p3519
I01
sV201339
p3520
I01
sV232885
p3521
I01
sV55425
p3522
I01
sV28129
p3523
I01
sV170614
p3524
I01
sV28124
p3525
I01
sV259516
p3526
I01
sV165186
p3527
I01
sV116533
p3528
I01
sV98343
p3529
I01
sV22787
p3530
I01
sV98695
p3531
I01
sV98344
p3532
I01
sV35513
p3533
I01
sV110074
p3534
I01
sV35511
p3535
I01
sV110771
p3536
I01
sV96037
p3537
I01
sV93512
p3538
I01
sV165986
p3539
I01
sV230817
p3540
I01
sV130496
p3541
I01
sV117483
p3542
I01
sV27096
p3543
I01
sV103513
p3544
I01
sV27092
p3545
I01
sV51217
p3546
I01
sV51746
p3547
I01
sV117944
p3548
I01
sV56774
p3549
I01
sV56991
p3550
I01
sV183808
p3551
I01
sV25782
p3552
I01
sV151905
p3553
I01
sV25786
p3554
I01
sV244166
p3555
I01
sV148249
p3556
I01
sV69893
p3557
I01
sV254209
p3558
I01
sV262716
p3559
I01
sV253279
p3560
I01
sV82928
p3561
I01
sV46417
p3562
I01
sV99345
p3563
I01
sV124303
p3564
I01
sV69127
p3565
I01
sV69124
p3566
I01
sV134390
p3567
I01
sV203666
p3568
I01
sV203661
p3569
I01
sV185567
p3570
I01
sV201808
p3571
I01
sV201807
p3572
I01
sV44908
p3573
I01
sV260710
p3574
I01
sV201803
p3575
I01
sV85598
p3576
I01
sV139343
p3577
I01
sV244634
p3578
I01
sV195546
p3579
I01
sV166763
p3580
I01
sV97340
p3581
I01
sV203402
p3582
I01
sV44901
p3583
I01
sV86996
p3584
I01
sV107544
p3585
I01
sV9222
p3586
I01
sV236337
p3587
I01
sV176762
p3588
I01
sV212872
p3589
I01
sV236330
p3590
I01
sV212878
p3591
I01
sV212879
p3592
I01
sV246837
p3593
I01
sV104672
p3594
I01
sV50914
p3595
I01
sV255150
p3596
I01
sV36835
p3597
I01
sV192149
p3598
I01
sV102073
p3599
I01
sV143416
p3600
I01
sV68451
p3601
I01
sV49805
p3602
I01
sV84315
p3603
I01
sV122882
p3604
I01
sV22621
p3605
I01
sV257794
p3606
I01
sV243714
p3607
I01
sV71586
p3608
I01
sV223687
p3609
I01
sV108740
p3610
I01
sV158852
p3611
I01
sV158851
p3612
I01
sV68238
p3613
I01
sV175585
p3614
I01
sV172916
p3615
I01
sV164600
p3616
I01
sV30138
p3617
I01
sV233675
p3618
I01
sV178154
p3619
I01
sV178406
p3620
I01
sV77980
p3621
I01
sV108290
p3622
I01
sV18006
p3623
I01
sV18007
p3624
I01
sV76582
p3625
I01
sV106824
p3626
I01
sV17851
p3627
I01
sV252645
p3628
I01
sV156685
p3629
I01
sV67601
p3630
I01
sV15989
p3631
I01
sV225485
p3632
I01
sV156689
p3633
I01
sV183253
p3634
I01
sV31408
p3635
I01
sV174475
p3636
I01
sV180780
p3637
I01
sV771
p3638
I01
sV193124
p3639
I01
sV196441
p3640
I01
sV23240
p3641
I01
sV68059
p3642
I01
sV156062
p3643
I01
sV219881
p3644
I01
sV129267
p3645
I01
sV28806
p3646
I01
sV74985
p3647
I01
sV185094
p3648
I01
sV74989
p3649
I01
sV23319
p3650
I01
sV23312
p3651
I01
sV136255
p3652
I01
sV139490
p3653
I01
sV105857
p3654
I01
sV177573
p3655
I01
sV82002
p3656
I01
sV109166
p3657
I01
sV77182
p3658
I01
sV35725
p3659
I01
sV35723
p3660
I01
sV206121
p3661
I01
sV39250
p3662
I01
sV50979
p3663
I01
sV7428
p3664
I01
sV32984
p3665
I01
sV74187
p3666
I01
sV81984
p3667
I01
sV93186
p3668
I01
sV74181
p3669
I01
sV93183
p3670
I01
sV223256
p3671
I01
sV149979
p3672
I01
sV84950
p3673
I01
sV177755
p3674
I01
sV84954
p3675
I01
sV240720
p3676
I01
sV110915
p3677
I01
sV187202
p3678
I01
sV180521
p3679
I01
sV69464
p3680
I01
sV120652
p3681
I01
sV57816
p3682
I01
sV121309
p3683
I01
sV236419
p3684
I01
sV121084
p3685
I01
sV207833
p3686
I01
sV96757
p3687
I01
sV253689
p3688
I01
sV214211
p3689
I01
sV22041
p3690
I01
sV52770
p3691
I01
sV86924
p3692
I01
sV257940
p3693
I01
sV119932
p3694
I01
sV158213
p3695
I01
sV43384
p3696
I01
sV240093
p3697
I01
sV135251
p3698
I01
sV46356
p3699
I01
sV219298
p3700
I01
sV249721
p3701
I01
sV75765
p3702
I01
sV249728
p3703
I01
sV199652
p3704
I01
sV13581
p3705
I01
sV13587
p3706
I01
sV194022
p3707
I01
sV43658
p3708
I01
sV175348
p3709
I01
sV165799
p3710
I01
sV172291
p3711
I01
sV236292
p3712
I01
sV190268
p3713
I01
sV96807
p3714
I01
sV97402
p3715
I01
sV190265
p3716
I01
sV96809
p3717
I01
sV190261
p3718
I01
sV246991
p3719
I01
sV138487
p3720
I01
sV94666
p3721
I01
sV116078
p3722
I01
sV237213
p3723
I01
sV102248
p3724
I01
sV237747
p3725
I01
sV167392
p3726
I01
sV146348
p3727
I01
sV125151
p3728
I01
sV235528
p3729
I01
sV9697
p3730
I01
sV57384
p3731
I01
sV185953
p3732
I01
sV185954
p3733
I01
sV113133
p3734
I01
sV211997
p3735
I01
sV211992
p3736
I01
sV112515
p3737
I01
sV34802
p3738
I01
sV87329
p3739
I01
sV184986
p3740
I01
sV45809
p3741
I01
sV256301
p3742
I01
sV20562
p3743
I01
sV77017
p3744
I01
sV260037
p3745
I01
sV2079
p3746
I01
sV83521
p3747
I01
sV172423
p3748
I01
sV251358
p3749
I01
sV251359
p3750
I01
sV85785
p3751
I01
sV264805
p3752
I01
sV59654
p3753
I01
sV191189
p3754
I01
sV263605
p3755
I01
sV233142
p3756
I01
sV57832
p3757
I01
sV29322
p3758
I01
sV147346
p3759
I01
sV176244
p3760
I01
sV163498
p3761
I01
sV198297
p3762
I01
sV175911
p3763
I01
sV164149
p3764
I01
sV111091
p3765
I01
sV179411
p3766
I01
sV169463
p3767
I01
sV72166
p3768
I01
sV15539
p3769
I01
sV175931
p3770
I01
sV194770
p3771
I01
sV194771
p3772
I01
sV95448
p3773
I01
sV115086
p3774
I01
sV194779
p3775
I01
sV151497
p3776
I01
sV31674
p3777
I01
sV174067
p3778
I01
sV212074
p3779
I01
sV183442
p3780
I01
sV225832
p3781
I01
sV222821
p3782
I01
sV88435
p3783
I01
sV155969
p3784
I01
sV67810
p3785
I01
sV38115
p3786
I01
sV151074
p3787
I01
sV86147
p3788
I01
sV86145
p3789
I01
sV643
p3790
I01
sV170187
p3791
I01
sV3097
p3792
I01
sV239741
p3793
I01
sV219575
p3794
I01
sV213039
p3795
I01
sV106839
p3796
I01
sV261974
p3797
I01
sV206845
p3798
I01
sV245504
p3799
I01
sV22547
p3800
I01
sV23473
p3801
I01
sV204998
p3802
I01
sV4106
p3803
I01
sV69857
p3804
I01
sV69853
p3805
I01
sV165436
p3806
I01
sV96239
p3807
I01
sV134998
p3808
I01
sV201646
p3809
I01
sV24693
p3810
I01
sV117930
p3811
I01
sV91935
p3812
I01
sV79463
p3813
I01
sV55407
p3814
I01
sV55157
p3815
I01
sV55403
p3816
I01
sV92910
p3817
I01
sV212947
p3818
I01
sV258367
p3819
I01
sV145259
p3820
I01
sV31895
p3821
I01
sV35574
p3822
I01
sV176306
p3823
I01
sV230749
p3824
I01
sV225143
p3825
I01
sV104326
p3826
I01
sV96583
p3827
I01
sV101753
p3828
I01
sV96581
p3829
I01
sV103530
p3830
I01
sV88696
p3831
I01
sV88691
p3832
I01
sV127119
p3833
I01
sV241629
p3834
I01
sV224873
p3835
I01
sV239509
p3836
I01
sV186816
p3837
I01
sV224870
p3838
I01
sV183868
p3839
I01
sV151922
p3840
I01
sV229356
p3841
I01
sV248704
p3842
I01
sV148229
p3843
I01
sV88416
p3844
I01
sV125818
p3845
I01
sV121846
p3846
I01
sV72361
p3847
I01
sV155596
p3848
I01
sV200996
p3849
I01
sV27344
p3850
I01
sV253216
p3851
I01
sV99322
p3852
I01
sV99329
p3853
I01
sV153567
p3854
I01
sV64467
p3855
I01
sV191411
p3856
I01
sV148597
p3857
I01
sV148595
p3858
I01
sV223067
p3859
I01
sV36032
p3860
I01
sV46295
p3861
I01
sV198842
p3862
I01
sV233801
p3863
I01
sV233806
p3864
I01
sV196999
p3865
I01
sV166706
p3866
I01
sV196996
p3867
I01
sV162669
p3868
I01
sV9206
p3869
I01
sV57440
p3870
I01
sV162667
p3871
I01
sV221939
p3872
I01
sV198595
p3873
I01
sV40193
p3874
I01
sV221937
p3875
I01
sV198599
p3876
I01
sV236350
p3877
I01
sV219379
p3878
I01
sV134622
p3879
I01
sV141156
p3880
I01
sV250741
p3881
I01
sV154108
p3882
I01
sV107691
p3883
I01
sV159877
p3884
I01
sV202592
p3885
I01
sV153654
p3886
I01
sV49357
p3887
I01
sV200734
p3888
I01
sV180889
p3889
I01
sV152162
p3890
I01
sV98812
p3891
I01
sV112189
p3892
I01
sV157538
p3893
I01
sV182012
p3894
I01
sV112187
p3895
I01
sV4484
p3896
I01
sV20999
p3897
I01
sV4481
p3898
I01
sV48199
p3899
I01
sV193815
p3900
I01
sV138015
p3901
I01
sV86383
p3902
I01
sV204439
p3903
I01
sV20990
p3904
I01
sV138541
p3905
I01
sV227120
p3906
I01
sV202772
p3907
I01
sV163530
p3908
I01
sV44476
p3909
I01
sV44477
p3910
I01
sV58710
p3911
I01
sV190104
p3912
I01
sV217903
p3913
I01
sV33796
p3914
I01
sV219747
p3915
I01
sV152036
p3916
I01
sV236978
p3917
I01
sV5318
p3918
I01
sV47636
p3919
I01
sV5315
p3920
I01
sV106082
p3921
I01
sV30443
p3922
I01
sV108546
p3923
I01
sV71703
p3924
I01
sV108819
p3925
I01
sV112092
p3926
I01
sV37832
p3927
I01
sV20871
p3928
I01
sV27501
p3929
I01
sV229166
p3930
I01
sV117088
p3931
I01
sV106773
p3932
I01
sV122356
p3933
I01
sV83647
p3934
I01
sV83312
p3935
I01
sV83315
p3936
I01
sV156669
p3937
I01
sV252667
p3938
I01
sV129465
p3939
I01
sV243739
p3940
I01
sV226801
p3941
I01
sV212680
p3942
I01
sV66829
p3943
I01
sV66828
p3944
I01
sV66535
p3945
I01
sV212689
p3946
I01
sV27641
p3947
I01
sV183052
p3948
I01
sV97964
p3949
I01
sV193105
p3950
I01
sV205905
p3951
I01
sV216230
p3952
I01
sV263141
p3953
I01
sV67482
p3954
I01
sV129207
p3955
I01
sV66759
p3956
I01
sV188089
p3957
I01
sV23335
p3958
I01
sV207850
p3959
I01
sV217011
p3960
I01
sV193247
p3961
I01
sV109140
p3962
I01
sV34563
p3963
I01
sV82068
p3964
I01
sV109638
p3965
I01
sV262538
p3966
I01
sV168659
p3967
I01
sV35965
p3968
I01
sV7408
p3969
I01
sV145404
p3970
I01
sV187191
p3971
I01
sV92210
p3972
I01
sV80627
p3973
I01
sV31429
p3974
I01
sV19082
p3975
I01
sV171829
p3976
I01
sV189680
p3977
I01
sV22680
p3978
I01
sV128383
p3979
I01
sV92073
p3980
I01
sV69441
p3981
I01
sV215347
p3982
I01
sV131131
p3983
I01
sV52847
p3984
I01
sV157868
p3985
I01
sV223026
p3986
I01
sV154748
p3987
I01
sV263366
p3988
I01
sV24730
p3989
I01
sV184058
p3990
I01
sV159592
p3991
I01
sV221694
p3992
I01
sV240705
p3993
I01
sV181107
p3994
I01
sV241478
p3995
I01
sV214272
p3996
I01
sV151576
p3997
I01
sV119409
p3998
I01
sV245992
p3999
I01
sV2331
p4000
I01
sV250248
p4001
I01
sV4710
p4002
I01
sV249641
p4003
I01
sV249640
p4004
I01
sV250240
p4005
I01
sV165372
p4006
I01
sV201459
p4007
I01
sV97794
p4008
I01
sV97793
p4009
I01
sV46335
p4010
I01
sV100967
p4011
I01
sV167625
p4012
I01
sV4904
p4013
I01
sV2481
p4014
I01
sV104044
p4015
I01
sV128497
p4016
I01
sV101561
p4017
I01
sV104043
p4018
I01
sV235092
p4019
I01
sV79074
p4020
I01
sV227034
p4021
I01
sV122987
p4022
I01
sV170886
p4023
I01
sV170885
p4024
I01
sV227038
p4025
I01
sV81886
p4026
I01
sV120856
p4027
I01
sV120850
p4028
I01
sV20768
p4029
I01
sV141893
p4030
I01
sV185684
p4031
I01
sV235894
p4032
I01
sV185680
p4033
I01
sV113111
p4034
I01
sV140414
p4035
I01
sV80135
p4036
I01
sV254431
p4037
I01
sV254432
p4038
I01
sV251113
p4039
I01
sV62288
p4040
I01
sV220982
p4041
I01
sV220987
p4042
I01
sV175688
p4043
I01
sV58464
p4044
I01
sV34821
p4045
I01
sV34824
p4046
I01
sV20507
p4047
I01
sV34827
p4048
I01
sV44661
p4049
I01
sV133761
p4050
I01
sV95486
p4051
I01
sV44667
p4052
I01
sV194343
p4053
I01
sV56199
p4054
I01
sV168137
p4055
I01
sV42108
p4056
I01
sV6820
p4057
I01
sV196616
p4058
I01
sV41101
p4059
I01
sV98347
p4060
I01
sV15888
p4061
I01
sV167849
p4062
I01
sV129079
p4063
I01
sV70866
p4064
I01
sV115329
p4065
I01
sV233007
p4066
I01
sV171214
p4067
I01
sV121729
p4068
I01
sV263625
p4069
I01
sV112577
p4070
I01
sV112574
p4071
I01
sV176267
p4072
I01
sV14938
p4073
I01
sV176269
p4074
I01
sV236019
p4075
I01
sV30653
p4076
I01
sV8218
p4077
I01
sV8749
p4078
I01
sV8210
p4079
I01
sV30303
p4080
I01
sV133187
p4081
I01
sV123769
p4082
I01
sV243698
p4083
I01
sV31654
p4084
I01
sV212059
p4085
I01
sV242348
p4086
I01
sV149437
p4087
I01
sV112794
p4088
I01
sV219081
p4089
I01
sV149433
p4090
I01
sV242340
p4091
I01
sV136861
p4092
I01
sV245348
p4093
I01
sV67832
p4094
I01
sV245342
p4095
I01
sV183427
p4096
I01
sV245347
p4097
I01
sV263089
p4098
I01
sV40504
p4099
I01
sV183158
p4100
I01
sV84963
p4101
I01
sV151058
p4102
I01
sV108153
p4103
I01
sV38086
p4104
I01
sV170169
p4105
I01
sV91482
p4106
I01
sV239895
p4107
I01
sV72108
p4108
I01
sV1516
p4109
I01
sV263880
p4110
I01
sV159342
p4111
I01
sV254981
p4112
I01
sV118599
p4113
I01
sV165411
p4114
I01
sV207448
p4115
I01
sV225674
p4116
I01
sV88902
p4117
I01
sV88903
p4118
I01
sV69479
p4119
I01
sV38336
p4120
I01
sV160703
p4121
I01
sV170305
p4122
I01
sV88909
p4123
I01
sV69478
p4124
I01
sV221575
p4125
I01
sV35223
p4126
I01
sV230722
p4127
I01
sV110038
p4128
I01
sV118620
p4129
I01
sV148141
p4130
I01
sV258384
p4131
I01
sV174100
p4132
I01
sV220774
p4133
I01
sV214041
p4134
I01
sV213544
p4135
I01
sV261952
p4136
I01
sV214046
p4137
I01
sV103553
p4138
I01
sV150895
p4139
I01
sV87955
p4140
I01
sV82472
p4141
I01
sV253187
p4142
I01
sV43882
p4143
I01
sV64668
p4144
I01
sV120445
p4145
I01
sV215312
p4146
I01
sV120110
p4147
I01
sV128802
p4148
I01
sV235394
p4149
I01
sV234383
p4150
I01
sV235393
p4151
I01
sV148971
p4152
I01
sV253231
p4153
I01
sV157273
p4154
I01
sV140770
p4155
I01
sV177656
p4156
I01
sV177652
p4157
I01
sV206711
p4158
I01
sV97162
p4159
I01
sV177658
p4160
I01
sV98652
p4161
I01
sV191473
p4162
I01
sV255726
p4163
I01
sV199191
p4164
I01
sV25297
p4165
I01
sV198823
p4166
I01
sV233820
p4167
I01
sV247692
p4168
I01
sV251584
p4169
I01
sV142955
p4170
I01
sV231091
p4171
I01
sV166727
p4172
I01
sV142950
p4173
I01
sV148244
p4174
I01
sV227201
p4175
I01
sV97307
p4176
I01
sV17240
p4177
I01
sV221917
p4178
I01
sV57461
p4179
I01
sV104705
p4180
I01
sV36856
p4181
I01
sV176015
p4182
I01
sV58882
p4183
I01
sV88378
p4184
I01
sV58886
p4185
I01
sV69167
p4186
I01
sV127675
p4187
I01
sV203622
p4188
I01
sV203994
p4189
I01
sV246870
p4190
I01
sV64918
p4191
I01
sV250983
p4192
I01
sV168093
p4193
I01
sV118830
p4194
I01
sV44274
p4195
I01
sV168098
p4196
I01
sV262712
p4197
I01
sV200711
p4198
I01
sV200714
p4199
I01
sV226139
p4200
I01
sV21599
p4201
I01
sV42826
p4202
I01
sV164425
p4203
I01
sV3500
p4204
I01
sV157040
p4205
I01
sV68416
p4206
I01
sV22864
p4207
I01
sV90651
p4208
I01
sV138520
p4209
I01
sV138525
p4210
I01
sV184564
p4211
I01
sV203195
p4212
I01
sV138526
p4213
I01
sV198310
p4214
I01
sV163512
p4215
I01
sV163517
p4216
I01
sV168279
p4217
I01
sV68791
p4218
I01
sV158892
p4219
I01
sV190124
p4220
I01
sV219766
p4221
I01
sV164390
p4222
I01
sV215407
p4223
I01
sV164394
p4224
I01
sV52236
p4225
I01
sV83484
p4226
I01
sV232017
p4227
I01
sV226790
p4228
I01
sV82926
p4229
I01
sV71724
p4230
I01
sV78674
p4231
I01
sV94535
p4232
I01
sV250666
p4233
I01
sV91017
p4234
I01
sV207295
p4235
I01
sV3172
p4236
I01
sV3175
p4237
I01
sV94539
p4238
I01
sV143141
p4239
I01
sV164968
p4240
I01
sV175090
p4241
I01
sV252609
p4242
I01
sV243200
p4243
I01
sV29826
p4244
I01
sV83669
p4245
I01
sV216038
p4246
I01
sV156393
p4247
I01
sV67644
p4248
I01
sV89198
p4249
I01
sV66518
p4250
I01
sV242155
p4251
I01
sV47991
p4252
I01
sV89193
p4253
I01
sV118456
p4254
I01
sV175892
p4255
I01
sV205922
p4256
I01
sV25840
p4257
I01
sV25841
p4258
I01
sV167458
p4259
I01
sV129998
p4260
I01
sV186590
p4261
I01
sV144883
p4262
I01
sV31223
p4263
I01
sV31227
p4264
I01
sV191993
p4265
I01
sV195691
p4266
I01
sV136294
p4267
I01
sV217073
p4268
I01
sV9387
p4269
I01
sV109619
p4270
I01
sV109618
p4271
I01
sV109617
p4272
I01
sV173334
p4273
I01
sV259555
p4274
I01
sV257647
p4275
I01
sV64149
p4276
I01
sV145428
p4277
I01
sV7463
p4278
I01
sV145937
p4279
I01
sV180744
p4280
I01
sV224245
p4281
I01
sV174320
p4282
I01
sV259737
p4283
I01
sV239285
p4284
I01
sV259738
p4285
I01
sV55611
p4286
I01
sV131113
p4287
I01
sV189119
p4288
I01
sV111537
p4289
I01
sV161272
p4290
I01
sV131449
p4291
I01
sV196076
p4292
I01
sV120610
p4293
I01
sV120614
p4294
I01
sV26574
p4295
I01
sV180290
p4296
I01
sV254890
p4297
I01
sV244804
p4298
I01
sV214524
p4299
I01
sV75541
p4300
I01
sV155416
p4301
I01
sV22008
p4302
I01
sV22001
p4303
I01
sV215783
p4304
I01
sV81241
p4305
I01
sV86215
p4306
I01
sV154094
p4307
I01
sV69951
p4308
I01
sV201433
p4309
I01
sV192914
p4310
I01
sV205732
p4311
I01
sV224937
p4312
I01
sV109895
p4313
I01
sV56833
p4314
I01
sV17385
p4315
I01
sV235701
p4316
I01
sV114169
p4317
I01
sV190528
p4318
I01
sV104068
p4319
I01
sV96797
p4320
I01
sV220238
p4321
I01
sV17033
p4322
I01
sV122619
p4323
I01
sV227019
p4324
I01
sV60007
p4325
I01
sV215123
p4326
I01
sV196279
p4327
I01
sV60008
p4328
I01
sV254456
p4329
I01
sV36336
p4330
I01
sV118337
p4331
I01
sV36330
p4332
I01
sV200527
p4333
I01
sV21293
p4334
I01
sV49164
p4335
I01
sV200520
p4336
I01
sV152823
p4337
I01
sV87361
p4338
I01
sV138195
p4339
I01
sV70007
p4340
I01
sV138198
p4341
I01
sV41346
p4342
I01
sV99517
p4343
I01
sV252853
p4344
I01
sV194329
p4345
I01
sV251392
p4346
I01
sV55761
p4347
I01
sV173494
p4348
I01
sV231280
p4349
I01
sV176462
p4350
I01
sV231289
p4351
I01
sV179181
p4352
I01
sV196673
p4353
I01
sV196672
p4354
I01
sV228431
p4355
I01
sV196676
p4356
I01
sV138991
p4357
I01
sV15714
p4358
I01
sV41697
p4359
I01
sV113795
p4360
I01
sV57871
p4361
I01
sV156259
p4362
I01
sV129058
p4363
I01
sV53514
p4364
I01
sV100168
p4365
I01
sV95178
p4366
I01
sV247317
p4367
I01
sV55769
p4368
I01
sV21432
p4369
I01
sV121706
p4370
I01
sV49788
p4371
I01
sV33678
p4372
I01
sV54394
p4373
I01
sV33677
p4374
I01
sV17065
p4375
I01
sV59926
p4376
I01
sV229085
p4377
I01
sV232732
p4378
I01
sV179454
p4379
I01
sV257438
p4380
I01
sV251827
p4381
I01
sV146870
p4382
I01
sV171099
p4383
I01
sV26800
p4384
I01
sV212033
p4385
I01
sV58691
p4386
I01
sV197673
p4387
I01
sV242361
p4388
I01
sV142489
p4389
I01
sV157251
p4390
I01
sV164984
p4391
I01
sV158977
p4392
I01
sV111018
p4393
I01
sV149456
p4394
I01
sV243416
p4395
I01
sV232775
p4396
I01
sV260397
p4397
I01
sV261584
p4398
I01
sV24525
p4399
I01
sV24526
p4400
I01
sV149197
p4401
I01
sV192955
p4402
I01
sV224652
p4403
I01
sV170147
p4404
I01
sV212784
p4405
I01
sV230395
p4406
I01
sV66183
p4407
I01
sV238834
p4408
I01
sV234888
p4409
I01
sV34378
p4410
I01
sV683
p4411
I01
sV13878
p4412
I01
sV232863
p4413
I01
sV13831
p4414
I01
sV179027
p4415
I01
sV234083
p4416
I01
sV234080
p4417
I01
sV143356
p4418
I01
sV183155
p4419
I01
sV143350
p4420
I01
sV143352
p4421
I01
sV229334
p4422
I01
sV259941
p4423
I01
sV229338
p4424
I01
sV186438
p4425
I01
sV141173
p4426
I01
sV228065
p4427
I01
sV221557
p4428
I01
sV221552
p4429
I01
sV263244
p4430
I01
sV188760
p4431
I01
sV236621
p4432
I01
sV165292
p4433
I01
sV23272
p4434
I01
sV79576
p4435
I01
sV198188
p4436
I01
sV253431
p4437
I01
sV256910
p4438
I01
sV197591
p4439
I01
sV181809
p4440
I01
sV19380
p4441
I01
sV155629
p4442
I01
sV82183
p4443
I01
sV189586
p4444
I01
sV244499
p4445
I01
sV240130
p4446
I01
sV240131
p4447
I01
sV147705
p4448
I01
sV220309
p4449
I01
sV231112
p4450
I01
sV166124
p4451
I01
sV200959
p4452
I01
sV198941
p4453
I01
sV27387
p4454
I01
sV206733
p4455
I01
sV39001
p4456
I01
sV25660
p4457
I01
sV57269
p4458
I01
sV165830
p4459
I01
sV191324
p4460
I01
sV57261
p4461
I01
sV104498
p4462
I01
sV117242
p4463
I01
sV16718
p4464
I01
sV195526
p4465
I01
sV97321
p4466
I01
sV98587
p4467
I01
sV259051
p4468
I01
sV182444
p4469
I01
sV227228
p4470
I01
sV119858
p4471
I01
sV257611
p4472
I01
sV100006
p4473
I01
sV159360
p4474
I01
sV250165
p4475
I01
sV250160
p4476
I01
sV234167
p4477
I01
sV104723
p4478
I01
sV121557
p4479
I01
sV121555
p4480
I01
sV63059
p4481
I01
sV235916
p4482
I01
sV95787
p4483
I01
sV150617
p4484
I01
sV21604
p4485
I01
sV21602
p4486
I01
sV212819
p4487
I01
sV46782
p4488
I01
sV141114
p4489
I01
sV84112
p4490
I01
sV84110
p4491
I01
sV64930
p4492
I01
sV204655
p4493
I01
sV45472
p4494
I01
sV45470
p4495
I01
sV204651
p4496
I01
sV192788
p4497
I01
sV81981
p4498
I01
sV254668
p4499
I01
sV152617
p4500
I01
sV133680
p4501
I01
sV202553
p4502
I01
sV202555
p4503
I01
sV98856
p4504
I01
sV255391
p4505
I01
sV157062
p4506
I01
sV49316
p4507
I01
sV200777
p4508
I01
sV190322
p4509
I01
sV45783
p4510
I01
sV138500
p4511
I01
sV106386
p4512
I01
sV38516
p4513
I01
sV38510
p4514
I01
sV249513
p4515
I01
sV126130
p4516
I01
sV70129
p4517
I01
sV90679
p4518
I01
sV199311
p4519
I01
sV183620
p4520
I01
sV198379
p4521
I01
sV131435
p4522
I01
sV14658
p4523
I01
sV71290
p4524
I01
sV236938
p4525
I01
sV224511
p4526
I01
sV38636
p4527
I01
sV190140
p4528
I01
sV58205
p4529
I01
sV237043
p4530
I01
sV175522
p4531
I01
sV106654
p4532
I01
sV185495
p4533
I01
sV44255
p4534
I01
sV133355
p4535
I01
sV123957
p4536
I01
sV185498
p4537
I01
sV133359
p4538
I01
sV69084
p4539
I01
sV147517
p4540
I01
sV33538
p4541
I01
sV71744
p4542
I01
sV106731
p4543
I01
sV182625
p4544
I01
sV27540
p4545
I01
sV129422
p4546
I01
sV221197
p4547
I01
sV196798
p4548
I01
sV68560
p4549
I01
sV133533
p4550
I01
sV248939
p4551
I01
sV133534
p4552
I01
sV216012
p4553
I01
sV202739
p4554
I01
sV40770
p4555
I01
sV242132
p4556
I01
sV182941
p4557
I01
sV132480
p4558
I01
sV196425
p4559
I01
sV193146
p4560
I01
sV109989
p4561
I01
sV26158
p4562
I01
sV16367
p4563
I01
sV78127
p4564
I01
sV253559
p4565
I01
sV192897
p4566
I01
sV171404
p4567
I01
sV76217
p4568
I01
sV91692
p4569
I01
sV76213
p4570
I01
sV91691
p4571
I01
sV234349
p4572
I01
sV207815
p4573
I01
sV8029
p4574
I01
sV8026
p4575
I01
sV177808
p4576
I01
sV228216
p4577
I01
sV7442
p4578
I01
sV154913
p4579
I01
sV154911
p4580
I01
sV26638
p4581
I01
sV26639
p4582
I01
sV126670
p4583
I01
sV124916
p4584
I01
sV188519
p4585
I01
sV182613
p4586
I01
sV216906
p4587
I01
sV216904
p4588
I01
sV22390
p4589
I01
sV22641
p4590
I01
sV131464
p4591
I01
sV131463
p4592
I01
sV216908
p4593
I01
sV50661
p4594
I01
sV192236
p4595
I01
sV73613
p4596
I01
sV192238
p4597
I01
sV154872
p4598
I01
sV28643
p4599
I01
sV74928
p4600
I01
sV213220
p4601
I01
sV214501
p4602
I01
sV29463
p4603
I01
sV214508
p4604
I01
sV184518
p4605
I01
sV81510
p4606
I01
sV257254
p4607
I01
sV119442
p4608
I01
sV184515
p4609
I01
sV77039
p4610
I01
sV43459
p4611
I01
sV43457
p4612
I01
sV43455
p4613
I01
sV201418
p4614
I01
sV13666
p4615
I01
sV165629
p4616
I01
sV55636
p4617
I01
sV19772
p4618
I01
sV165627
p4619
I01
sV17632
p4620
I01
sV56850
p4621
I01
sV56677
p4622
I01
sV56673
p4623
I01
sV94313
p4624
I01
sV145002
p4625
I01
sV90803
p4626
I01
sV4639
p4627
I01
sV222540
p4628
I01
sV146215
p4629
I01
sV181635
p4630
I01
sV181141
p4631
I01
sV140183
p4632
I01
sV253372
p4633
I01
sV140185
p4634
I01
sV101526
p4635
I01
sV20891
p4636
I01
sV20725
p4637
I01
sV246427
p4638
I01
sV27669
p4639
I01
sV120899
p4640
I01
sV25554
p4641
I01
sV60798
p4642
I01
sV60061
p4643
I01
sV60065
p4644
I01
sV237726
p4645
I01
sV74212
p4646
I01
sV248158
p4647
I01
sV85455
p4648
I01
sV80174
p4649
I01
sV74214
p4650
I01
sV248150
p4651
I01
sV248156
p4652
I01
sV251153
p4653
I01
sV200542
p4654
I01
sV166821
p4655
I01
sV49147
p4656
I01
sV49145
p4657
I01
sV205718
p4658
I01
sV166828
p4659
I01
sV41369
p4660
I01
sV199761
p4661
I01
sV134147
p4662
I01
sV20091
p4663
I01
sV87345
p4664
I01
sV45315
p4665
I01
sV2739
p4666
I01
sV45867
p4667
I01
sV191155
p4668
I01
sV239307
p4669
I01
sV194301
p4670
I01
sV191156
p4671
I01
sV83851
p4672
I01
sV16904
p4673
I01
sV195318
p4674
I01
sV247088
p4675
I01
sV86262
p4676
I01
sV97467
p4677
I01
sV176199
p4678
I01
sV54400
p4679
I01
sV6228
p4680
I01
sV176191
p4681
I01
sV9762
p4682
I01
sV9763
p4683
I01
sV125060
p4684
I01
sV57899
p4685
I01
sV95195
p4686
I01
sV118754
p4687
I01
sV29344
p4688
I01
sV29343
p4689
I01
sV223790
p4690
I01
sV142172
p4691
I01
sV176223
p4692
I01
sV71196
p4693
I01
sV21418
p4694
I01
sV247333
p4695
I01
sV122490
p4696
I01
sV112206
p4697
I01
sV119201
p4698
I01
sV146858
p4699
I01
sV67562
p4700
I01
sV80820
p4701
I01
sV71990
p4702
I01
sV151481
p4703
I01
sV5274
p4704
I01
sV149472
p4705
I01
sV160058
p4706
I01
sV219047
p4707
I01
sV1778
p4708
I01
sV37193
p4709
I01
sV138316
p4710
I01
sV41542
p4711
I01
sV157724
p4712
I01
sV169621
p4713
I01
sV41148
p4714
I01
sV256884
p4715
I01
sV40239
p4716
I01
sV37997
p4717
I01
sV108110
p4718
I01
sV108116
p4719
I01
sV17997
p4720
I01
sV17991
p4721
I01
sV122231
p4722
I01
sV28436
p4723
I01
sV219594
p4724
I01
sV28433
p4725
I01
sV144985
p4726
I01
sV15595
p4727
I01
sV32266
p4728
I01
sV59492
p4729
I01
sV30610
p4730
I01
sV94962
p4731
I01
sV34318
p4732
I01
sV169951
p4733
I01
sV91446
p4734
I01
sV91445
p4735
I01
sV264791
p4736
I01
sV114202
p4737
I01
sV247984
p4738
I01
sV171612
p4739
I01
sV110780
p4740
I01
sV232806
p4741
I01
sV148985
p4742
I01
sV165106
p4743
I01
sV66962
p4744
I01
sV89010
p4745
I01
sV89013
p4746
I01
sV64792
p4747
I01
sV91990
p4748
I01
sV207485
p4749
I01
sV207486
p4750
I01
sV186413
p4751
I01
sV213768
p4752
I01
sV252162
p4753
I01
sV143408
p4754
I01
sV144186
p4755
I01
sV21729
p4756
I01
sV151185
p4757
I01
sV55519
p4758
I01
sV35263
p4759
I01
sV110564
p4760
I01
sV180153
p4761
I01
sV219237
p4762
I01
sV145760
p4763
I01
sV262246
p4764
I01
sV126807
p4765
I01
sV235556
p4766
I01
sV181829
p4767
I01
sV15336
p4768
I01
sV155649
p4769
I01
sV256424
p4770
I01
sV181824
p4771
I01
sV253415
p4772
I01
sV182400
p4773
I01
sV194682
p4774
I01
sV73672
p4775
I01
sV21720
p4776
I01
sV206821
p4777
I01
sV194688
p4778
I01
sV206531
p4779
I01
sV218080
p4780
I01
sV74027
p4781
I01
sV18853
p4782
I01
sV197888
p4783
I01
sV55791
p4784
I01
sV262066
p4785
I01
sV131097
p4786
I01
sV97120
p4787
I01
sV97126
p4788
I01
sV193414
p4789
I01
sV161333
p4790
I01
sV173104
p4791
I01
sV73454
p4792
I01
sV177611
p4793
I01
sV107298
p4794
I01
sV16737
p4795
I01
sV165817
p4796
I01
sV57790
p4797
I01
sV57794
p4798
I01
sV57244
p4799
I01
sV16229
p4800
I01
sV65680
p4801
I01
sV42796
p4802
I01
sV42793
p4803
I01
sV119833
p4804
I01
sV105036
p4805
I01
sV186142
p4806
I01
sV120401
p4807
I01
sV124128
p4808
I01
sV124129
p4809
I01
sV120405
p4810
I01
sV159348
p4811
I01
sV140845
p4812
I01
sV254390
p4813
I01
sV49558
p4814
I01
sV43790
p4815
I01
sV184704
p4816
I01
sV201885
p4817
I01
sV2508
p4818
I01
sV90477
p4819
I01
sV167276
p4820
I01
sV64955
p4821
I01
sV162350
p4822
I01
sV124387
p4823
I01
sV200754
p4824
I01
sV135404
p4825
I01
sV46505
p4826
I01
sV49334
p4827
I01
sV200020
p4828
I01
sV135402
p4829
I01
sV49889
p4830
I01
sV163087
p4831
I01
sV46508
p4832
I01
sV112425
p4833
I01
sV157001
p4834
I01
sV249531
p4835
I01
sV75083
p4836
I01
sV186256
p4837
I01
sV212706
p4838
I01
sV199485
p4839
I01
sV15181
p4840
I01
sV9514
p4841
I01
sV53740
p4842
I01
sV70108
p4843
I01
sV186892
p4844
I01
sV27667
p4845
I01
sV51145
p4846
I01
sV36762
p4847
I01
sV236910
p4848
I01
sV190166
p4849
I01
sV58229
p4850
I01
sV18882
p4851
I01
sV153474
p4852
I01
sV145863
p4853
I01
sV21647
p4854
I01
sV83444
p4855
I01
sV23172
p4856
I01
sV175500
p4857
I01
sV240353
p4858
I01
sV202532
p4859
I01
sV44230
p4860
I01
sV156063
p4861
I01
sV254646
p4862
I01
sV36103
p4863
I01
sV80976
p4864
I01
sV212269
p4865
I01
sV146275
p4866
I01
sV41554
p4867
I01
sV41556
p4868
I01
sV91053
p4869
I01
sV203228
p4870
I01
sV220951
p4871
I01
sV216073
p4872
I01
sV233183
p4873
I01
sV163225
p4874
I01
sV163550
p4875
I01
sV163221
p4876
I01
sV5188
p4877
I01
sV244181
p4878
I01
sV185090
p4879
I01
sV61429
p4880
I01
sV30285
p4881
I01
sV174106
p4882
I01
sV77905
p4883
I01
sV108875
p4884
I01
sV238668
p4885
I01
sV238844
p4886
I01
sV238842
p4887
I01
sV239139
p4888
I01
sV234329
p4889
I01
sV34500
p4890
I01
sV79506
p4891
I01
sV34058
p4892
I01
sV229279
p4893
I01
sV67792
p4894
I01
sV67791
p4895
I01
sV180702
p4896
I01
sV35902
p4897
I01
sV180706
p4898
I01
sV86665
p4899
I01
sV224759
p4900
I01
sV224204
p4901
I01
sV224201
p4902
I01
sV92505
p4903
I01
sV217211
p4904
I01
sV28085
p4905
I01
sV24283
p4906
I01
sV79735
p4907
I01
sV151372
p4908
I01
sV111573
p4909
I01
sV111570
p4910
I01
sV182638
p4911
I01
sV127521
p4912
I01
sV214740
p4913
I01
sV131401
p4914
I01
sV249333
p4915
I01
sV24756
p4916
I01
sV24751
p4917
I01
sV221184
p4918
I01
sV28664
p4919
I01
sV160857
p4920
I01
sV213246
p4921
I01
sV213245
p4922
I01
sV174816
p4923
I01
sV110193
p4924
I01
sV35671
p4925
I01
sV81579
p4926
I01
sV228498
p4927
I01
sV26281
p4928
I01
sV114439
p4929
I01
sV258205
p4930
I01
sV220054
p4931
I01
sV116341
p4932
I01
sV17619
p4933
I01
sV98423
p4934
I01
sV227586
p4935
I01
sV100909
p4936
I01
sV110226
p4937
I01
sV183945
p4938
I01
sV167646
p4939
I01
sV177578
p4940
I01
sV60264
p4941
I01
sV220586
p4942
I01
sV235748
p4943
I01
sV200007
p4944
I01
sV235747
p4945
I01
sV235033
p4946
I01
sV205080
p4947
I01
sV150133
p4948
I01
sV27228
p4949
I01
sV186397
p4950
I01
sV186395
p4951
I01
sV186394
p4952
I01
sV20878
p4953
I01
sV186390
p4954
I01
sV20877
p4955
I01
sV52171
p4956
I01
sV257853
p4957
I01
sV153448
p4958
I01
sV52174
p4959
I01
sV81399
p4960
I01
sV215168
p4961
I01
sV102979
p4962
I01
sV118375
p4963
I01
sV215160
p4964
I01
sV240362
p4965
I01
sV233965
p4966
I01
sV80158
p4967
I01
sV16699
p4968
I01
sV152867
p4969
I01
sV251605
p4970
I01
sV85470
p4971
I01
sV98136
p4972
I01
sV166666
p4973
I01
sV98132
p4974
I01
sV200562
p4975
I01
sV162540
p4976
I01
sV162541
p4977
I01
sV207043
p4978
I01
sV39819
p4979
I01
sV39815
p4980
I01
sV223616
p4981
I01
sV139062
p4982
I01
sV198166
p4983
I01
sV6246
p4984
I01
sV26275
p4985
I01
sV102358
p4986
I01
sV175648
p4987
I01
sV8595
p4988
I01
sV70372
p4989
I01
sV121743
p4990
I01
sV152243
p4991
I01
sV125044
p4992
I01
sV125048
p4993
I01
sV112262
p4994
I01
sV54683
p4995
I01
sV255725
p4996
I01
sV112267
p4997
I01
sV223776
p4998
I01
sV18963
p4999
I01
sV184938
p5000
I01
sV249941
p5001
I01
sV67098
p5002
I01
sV26844
p5003
I01
sV233511
p5004
I01
sV67091
p5005
I01
sV243637
p5006
I01
sV80849
p5007
I01
sV90575
p5008
I01
sV157740
p5009
I01
sV157741
p5010
I01
sV132875
p5011
I01
sV132874
p5012
I01
sV157745
p5013
I01
sV219060
p5014
I01
sV149494
p5015
I01
sV96990
p5016
I01
sV264552
p5017
I01
sV233796
p5018
I01
sV162965
p5019
I01
sV243453
p5020
I01
sV243457
p5021
I01
sV233799
p5022
I01
sV112487
p5023
I01
sV14335
p5024
I01
sV58562
p5025
I01
sV104314
p5026
I01
sV169975
p5027
I01
sV234513
p5028
I01
sV220879
p5029
I01
sV220878
p5030
I01
sV91428
p5031
I01
sV207646
p5032
I01
sV170105
p5033
I01
sV220870
p5034
I01
sV232773
p5035
I01
sV232777
p5036
I01
sV59966
p5037
I01
sV175778
p5038
I01
sV232778
p5039
I01
sV183373
p5040
I01
sV175995
p5041
I01
sV179491
p5042
I01
sV258052
p5043
I01
sV114227
p5044
I01
sV66948
p5045
I01
sV232826
p5046
I01
sV188498
p5047
I01
sV5669
p5048
I01
sV197240
p5049
I01
sV160447
p5050
I01
sV165124
p5051
I01
sV225342
p5052
I01
sV205861
p5053
I01
sV225347
p5054
I01
sV225345
p5055
I01
sV225349
p5056
I01
sV103020
p5057
I01
sV67322
p5058
I01
sV115285
p5059
I01
sV252187
p5060
I01
sV94649
p5061
I01
sV245677
p5062
I01
sV126351
p5063
I01
sV126826
p5064
I01
sV66050
p5065
I01
sV118685
p5066
I01
sV114083
p5067
I01
sV130437
p5068
I01
sV110507
p5069
I01
sV217159
p5070
I01
sV169206
p5071
I01
sV256403
p5072
I01
sV245583
p5073
I01
sV27038
p5074
I01
sV231486
p5075
I01
sV51735
p5076
I01
sV48860
p5077
I01
sV8181
p5078
I01
sV103404
p5079
I01
sV104538
p5080
I01
sV127994
p5081
I01
sV253292
p5082
I01
sV198989
p5083
I01
sV127993
p5084
I01
sV198985
p5085
I01
sV32590
p5086
I01
sV78931
p5087
I01
sV56464
p5088
I01
sV98639
p5089
I01
sV256241
p5090
I01
sV228025
p5091
I01
sV50140
p5092
I01
sV73926
p5093
I01
sV16200
p5094
I01
sV96678
p5095
I01
sV220504
p5096
I01
sV16754
p5097
I01
sV96673
p5098
I01
sV247988
p5099
I01
sV96676
p5100
I01
sV245854
p5101
I01
sV231032
p5102
I01
sV189458
p5103
I01
sV119819
p5104
I01
sV158330
p5105
I01
sV119765
p5106
I01
sV130697
p5107
I01
sV25767
p5108
I01
sV69232
p5109
I01
sV120170
p5110
I01
sV81145
p5111
I01
sV205695
p5112
I01
sV205693
p5113
I01
sV85393
p5114
I01
sV223746
p5115
I01
sV236681
p5116
I01
sV204610
p5117
I01
sV203933
p5118
I01
sV2526
p5119
I01
sV204618
p5120
I01
sV45433
p5121
I01
sV116484
p5122
I01
sV94296
p5123
I01
sV90459
p5124
I01
sV191361
p5125
I01
sV191368
p5126
I01
sV99945
p5127
I01
sV200004
p5128
I01
sV152655
p5129
I01
sV58025
p5130
I01
sV46520
p5131
I01
sV17400
p5132
I01
sV167433
p5133
I01
sV90634
p5134
I01
sV152475
p5135
I01
sV152470
p5136
I01
sV141347
p5137
I01
sV53767
p5138
I01
sV122026
p5139
I01
sV122020
p5140
I01
sV216808
p5141
I01
sV104830
p5142
I01
sV14834
p5143
I01
sV4191
p5144
I01
sV122028
p5145
I01
sV125278
p5146
I01
sV45290
p5147
I01
sV64200
p5148
I01
sV111055
p5149
I01
sV246763
p5150
I01
sV252404
p5151
I01
sV128172
p5152
I01
sV125903
p5153
I01
sV188935
p5154
I01
sV169783
p5155
I01
sV255577
p5156
I01
sV48009
p5157
I01
sV48008
p5158
I01
sV225428
p5159
I01
sV167921
p5160
I01
sV196759
p5161
I01
sV137816
p5162
I01
sV61748
p5163
I01
sV129175
p5164
I01
sV95659
p5165
I01
sV168789
p5166
I01
sV20955
p5167
I01
sV78345
p5168
I01
sV78344
p5169
I01
sV78347
p5170
I01
sV18579
p5171
I01
sV157979
p5172
I01
sV172864
p5173
I01
sV76039
p5174
I01
sV205984
p5175
I01
sV205989
p5176
I01
sV15129
p5177
I01
sV193188
p5178
I01
sV129287
p5179
I01
sV191971
p5180
I01
sV191970
p5181
I01
sV87771
p5182
I01
sV179805
p5183
I01
sV108675
p5184
I01
sV174166
p5185
I01
sV174168
p5186
I01
sV77924
p5187
I01
sV257597
p5188
I01
sV18753
p5189
I01
sV78160
p5190
I01
sV149539
p5191
I01
sV240278
p5192
I01
sV72202
p5193
I01
sV106992
p5194
I01
sV173357
p5195
I01
sV243841
p5196
I01
sV28217
p5197
I01
sV177846
p5198
I01
sV79610
p5199
I01
sV180722
p5200
I01
sV207585
p5201
I01
sV23007
p5202
I01
sV212607
p5203
I01
sV28060
p5204
I01
sV226886
p5205
I01
sV214769
p5206
I01
sV158105
p5207
I01
sV206984
p5208
I01
sV241162
p5209
I01
sV131428
p5210
I01
sV255992
p5211
I01
sV154832
p5212
I01
sV159517
p5213
I01
sV154836
p5214
I01
sV26517
p5215
I01
sV154838
p5216
I01
sV83189
p5217
I01
sV160839
p5218
I01
sV230148
p5219
I01
sV28602
p5220
I01
sV234658
p5221
I01
sV73555
p5222
I01
sV245251
p5223
I01
sV92381
p5224
I01
sV73552
p5225
I01
sV22475
p5226
I01
sV114144
p5227
I01
sV174833
p5228
I01
sV104220
p5229
I01
sV194889
p5230
I01
sV118748
p5231
I01
sV165666
p5232
I01
sV185294
p5233
I01
sV197980
p5234
I01
sV259793
p5235
I01
sV256877
p5236
I01
sV181984
p5237
I01
sV256871
p5238
I01
sV177158
p5239
I01
sV64782
p5240
I01
sV64784
p5241
I01
sV116810
p5242
I01
sV110243
p5243
I01
sV244532
p5244
I01
sV110245
p5245
I01
sV101078
p5246
I01
sV104597
p5247
I01
sV214544
p5248
I01
sV178824
p5249
I01
sV127767
p5250
I01
sV241349
p5251
I01
sV240435
p5252
I01
sV120233
p5253
I01
sV260323
p5254
I01
sV120235
p5255
I01
sV260321
p5256
I01
sV154306
p5257
I01
sV86857
p5258
I01
sV154303
p5259
I01
sV74256
p5260
I01
sV25512
p5261
I01
sV195469
p5262
I01
sV233944
p5263
I01
sV233942
p5264
I01
sV98400
p5265
I01
sV98401
p5266
I01
sV166863
p5267
I01
sV75788
p5268
I01
sV166642
p5269
I01
sV97713
p5270
I01
sV173988
p5271
I01
sV96806
p5272
I01
sV9140
p5273
I01
sV95404
p5274
I01
sV179802
p5275
I01
sV21180
p5276
I01
sV17095
p5277
I01
sV146090
p5278
I01
sV70319
p5279
I01
sV102337
p5280
I01
sV49274
p5281
I01
sV21327
p5282
I01
sV63518
p5283
I01
sV42981
p5284
I01
sV20331
p5285
I01
sV121015
p5286
I01
sV152227
p5287
I01
sV20330
p5288
I01
sV220153
p5289
I01
sV84720
p5290
I01
sV112245
p5291
I01
sV8892
p5292
I01
sV204000
p5293
I01
sV7156
p5294
I01
sV41325
p5295
I01
sV107380
p5296
I01
sV204008
p5297
I01
sV41320
p5298
I01
sV91439
p5299
I01
sV137158
p5300
I01
sV133459
p5301
I01
sV243613
p5302
I01
sV19365
p5303
I01
sV164857
p5304
I01
sV68667
p5305
I01
sV1730
p5306
I01
sV68663
p5307
I01
sV206734
p5308
I01
sV138351
p5309
I01
sV15803
p5310
I01
sV178520
p5311
I01
sV28476
p5312
I01
sV28477
p5313
I01
sV220819
p5314
I01
sV27444
p5315
I01
sV94439
p5316
I01
sV94928
p5317
I01
sV38004
p5318
I01
sV17950
p5319
I01
sV79773
p5320
I01
sV91401
p5321
I01
sV144948
p5322
I01
sV167396
p5323
I01
sV232798
p5324
I01
sV167397
p5325
I01
sV186183
p5326
I01
sV66690
p5327
I01
sV118511
p5328
I01
sV258078
p5329
I01
sV217391
p5330
I01
sV66929
p5331
I01
sV31526
p5332
I01
sV47589
p5333
I01
sV259617
p5334
I01
sV169190
p5335
I01
sV85924
p5336
I01
sV254903
p5337
I01
sV161766
p5338
I01
sV213894
p5339
I01
sV213729
p5340
I01
sV216555
p5341
I01
sV156419
p5342
I01
sV216550
p5343
I01
sV156414
p5344
I01
sV218719
p5345
I01
sV217170
p5346
I01
sV23215
p5347
I01
sV47052
p5348
I01
sV23747
p5349
I01
sV212417
p5350
I01
sV185193
p5351
I01
sV181866
p5352
I01
sV15379
p5353
I01
sV84165
p5354
I01
sV105954
p5355
I01
sV128308
p5356
I01
sV206579
p5357
I01
sV30927
p5358
I01
sV35002
p5359
I01
sV50835
p5360
I01
sV92174
p5361
I01
sV171658
p5362
I01
sV117776
p5363
I01
sV102068
p5364
I01
sV117779
p5365
I01
sV104471
p5366
I01
sV111455
p5367
I01
sV34715
p5368
I01
sV88892
p5369
I01
sV161375
p5370
I01
sV225948
p5371
I01
sV127977
p5372
I01
sV193459
p5373
I01
sV39066
p5374
I01
sV119601
p5375
I01
sV39062
p5376
I01
sV206794
p5377
I01
sV44280
p5378
I01
sV64849
p5379
I01
sV177383
p5380
I01
sV224018
p5381
I01
sV224011
p5382
I01
sV247967
p5383
I01
sV32716
p5384
I01
sV19270
p5385
I01
sV247961
p5386
I01
sV227936
p5387
I01
sV231018
p5388
I01
sV97387
p5389
I01
sV131363
p5390
I01
sV241754
p5391
I01
sV131368
p5392
I01
sV81122
p5393
I01
sV81128
p5394
I01
sV159308
p5395
I01
sV249104
p5396
I01
sV257331
p5397
I01
sV139976
p5398
I01
sV43804
p5399
I01
sV140808
p5400
I01
sV246724
p5401
I01
sV8364
p5402
I01
sV200247
p5403
I01
sV21846
p5404
I01
sV135626
p5405
I01
sV219828
p5406
I01
sV246663
p5407
I01
sV184748
p5408
I01
sV240553
p5409
I01
sV114604
p5410
I01
sV69345
p5411
I01
sV47243
p5412
I01
sV64995
p5413
I01
sV2549
p5414
I01
sV172674
p5415
I01
sV230492
p5416
I01
sV191343
p5417
I01
sV5000
p5418
I01
sV196825
p5419
I01
sV98212
p5420
I01
sV160223
p5421
I01
sV196829
p5422
I01
sV200795
p5423
I01
sV97529
p5424
I01
sV246568
p5425
I01
sV53794
p5426
I01
sV246563
p5427
I01
sV98823
p5428
I01
sV130015
p5429
I01
sV36724
p5430
I01
sV70141
p5431
I01
sV188556
p5432
I01
sV113078
p5433
I01
sV80292
p5434
I01
sV128996
p5435
I01
sV148315
p5436
I01
sV112382
p5437
I01
sV105430
p5438
I01
sV175544
p5439
I01
sV48644
p5440
I01
sV254685
p5441
I01
sV146155
p5442
I01
sV194088
p5443
I01
sV39999
p5444
I01
sV133669
p5445
I01
sV139747
p5446
I01
sV139740
p5447
I01
sV168012
p5448
I01
sV48027
p5449
I01
sV256196
p5450
I01
sV229805
p5451
I01
sV103042
p5452
I01
sV252680
p5453
I01
sV252685
p5454
I01
sV99748
p5455
I01
sV203262
p5456
I01
sV248229
p5457
I01
sV202790
p5458
I01
sV44496
p5459
I01
sV44497
p5460
I01
sV248223
p5461
I01
sV110117
p5462
I01
sV248227
p5463
I01
sV78369
p5464
I01
sV176361
p5465
I01
sV71236
p5466
I01
sV195144
p5467
I01
sV163597
p5468
I01
sV172841
p5469
I01
sV109439
p5470
I01
sV109928
p5471
I01
sV15144
p5472
I01
sV164060
p5473
I01
sV264074
p5474
I01
sV59538
p5475
I01
sV191918
p5476
I01
sV39529
p5477
I01
sV233326
p5478
I01
sV171464
p5479
I01
sV255558
p5480
I01
sV37673
p5481
I01
sV115567
p5482
I01
sV111605
p5483
I01
sV229721
p5484
I01
sV111601
p5485
I01
sV30021
p5486
I01
sV229235
p5487
I01
sV202137
p5488
I01
sV86623
p5489
I01
sV137747
p5490
I01
sV133848
p5491
I01
sV39295
p5492
I01
sV14766
p5493
I01
sV23028
p5494
I01
sV219638
p5495
I01
sV240954
p5496
I01
sV157403
p5497
I01
sV28591
p5498
I01
sV207567
p5499
I01
sV28593
p5500
I01
sV23026
p5501
I01
sV207561
p5502
I01
sV129804
p5503
I01
sV129806
p5504
I01
sV183651
p5505
I01
sV175806
p5506
I01
sV183654
p5507
I01
sV73798
p5508
I01
sV114381
p5509
I01
sV238771
p5510
I01
sV63303
p5511
I01
sV230160
p5512
I01
sV27
p5513
I01
sV230164
p5514
I01
sV160762
p5515
I01
sV79543
p5516
I01
sV239170
p5517
I01
sV73573
p5518
I01
sV73572
p5519
I01
sV92815
p5520
I01
sV92814
p5521
I01
sV258536
p5522
I01
sV66480
p5523
I01
sV126780
p5524
I01
sV130579
p5525
I01
sV178363
p5526
I01
sV258249
p5527
I01
sV258539
p5528
I01
sV51372
p5529
I01
sV225006
p5530
I01
sV87877
p5531
I01
sV214709
p5532
I01
sV150311
p5533
I01
sV120781
p5534
I01
sV60227
p5535
I01
sV222520
p5536
I01
sV82505
p5537
I01
sV181654
p5538
I01
sV163868
p5539
I01
sV181658
p5540
I01
sV140651
p5541
I01
sV214830
p5542
I01
sV61289
p5543
I01
sV65903
p5544
I01
sV82332
p5545
I01
sV82335
p5546
I01
sV61281
p5547
I01
sV260345
p5548
I01
sV240417
p5549
I01
sV25539
p5550
I01
sV86830
p5551
I01
sV69067
p5552
I01
sV51995
p5553
I01
sV74502
p5554
I01
sV87396
p5555
I01
sV142874
p5556
I01
sV189083
p5557
I01
sV130595
p5558
I01
sV42436
p5559
I01
sV102435
p5560
I01
sV117127
p5561
I01
sV56617
p5562
I01
sV56613
p5563
I01
sV116830
p5564
I01
sV97733
p5565
I01
sV95461
p5566
I01
sV57567
p5567
I01
sV235696
p5568
I01
sV235690
p5569
I01
sV39854
p5570
I01
sV265030
p5571
I01
sV70080
p5572
I01
sV93858
p5573
I01
sV231511
p5574
I01
sV63759
p5575
I01
sV236259
p5576
I01
sV261161
p5577
I01
sV231977
p5578
I01
sV6280
p5579
I01
sV204795
p5580
I01
sV250842
p5581
I01
sV204792
p5582
I01
sV20838
p5583
I01
sV44378
p5584
I01
sV125555
p5585
I01
sV107793
p5586
I01
sV247399
p5587
I01
sV46976
p5588
I01
sV37469
p5589
I01
sV176289
p5590
I01
sV38450
p5591
I01
sV162056
p5592
I01
sV141748
p5593
I01
sV162055
p5594
I01
sV199700
p5595
I01
sV2751
p5596
I01
sV203074
p5597
I01
sV198077
p5598
I01
sV163676
p5599
I01
sV80888
p5600
I01
sV133121
p5601
I01
sV151992
p5602
I01
sV219024
p5603
I01
sV226385
p5604
I01
sV264262
p5605
I01
sV106154
p5606
I01
sV175155
p5607
I01
sV106150
p5608
I01
sV164900
p5609
I01
sV62486
p5610
I01
sV90174
p5611
I01
sV232408
p5612
I01
sV230316
p5613
I01
sV37287
p5614
I01
sV238161
p5615
I01
sV71069
p5616
I01
sV17933
p5617
I01
sV220834
p5618
I01
sV54065
p5619
I01
sV115717
p5620
I01
sV87051
p5621
I01
sV87057
p5622
I01
sV144924
p5623
I01
sV81964
p5624
I01
sV94413
p5625
I01
sV20305
p5626
I01
sV246040
p5627
I01
sV213919
p5628
I01
sV168981
p5629
I01
sV40070
p5630
I01
sV187525
p5631
I01
sV147744
p5632
I01
sV242819
p5633
I01
sV91021
p5634
I01
sV66673
p5635
I01
sV109594
p5636
I01
sV138807
p5637
I01
sV229118
p5638
I01
sV183489
p5639
I01
sV156431
p5640
I01
sV213877
p5641
I01
sV161744
p5642
I01
sV247259
p5643
I01
sV40257
p5644
I01
sV218734
p5645
I01
sV29500
p5646
I01
sV237609
p5647
I01
sV242727
p5648
I01
sV217111
p5649
I01
sV109775
p5650
I01
sV34480
p5651
I01
sV239693
p5652
I01
sV173250
p5653
I01
sV105939
p5654
I01
sV177419
p5655
I01
sV105932
p5656
I01
sV177416
p5657
I01
sV171100
p5658
I01
sV145522
p5659
I01
sV180685
p5660
I01
sV103683
p5661
I01
sV19476
p5662
I01
sV89853
p5663
I01
sV55731
p5664
I01
sV55733
p5665
I01
sV189468
p5666
I01
sV245092
p5667
I01
sV245094
p5668
I01
sV8328
p5669
I01
sV8326
p5670
I01
sV100263
p5671
I01
sV203776
p5672
I01
sV73968
p5673
I01
sV249293
p5674
I01
sV39087
p5675
I01
sV119620
p5676
I01
sV224521
p5677
I01
sV35282
p5678
I01
sV221002
p5679
I01
sV50106
p5680
I01
sV149294
p5681
I01
sV155770
p5682
I01
sV117828
p5683
I01
sV32772
p5684
I01
sV55887
p5685
I01
sV155778
p5686
I01
sV121902
p5687
I01
sV249122
p5688
I01
sV69909
p5689
I01
sV154176
p5690
I01
sV81104
p5691
I01
sV69273
p5692
I01
sV100083
p5693
I01
sV3616
p5694
I01
sV82812
p5695
I01
sV141196
p5696
I01
sV116442
p5697
I01
sV130383
p5698
I01
sV172610
p5699
I01
sV96104
p5700
I01
sV230967
p5701
I01
sV227375
p5702
I01
sV38595
p5703
I01
sV246545
p5704
I01
sV17446
p5705
I01
sV240064
p5706
I01
sV240060
p5707
I01
sV162190
p5708
I01
sV53902
p5709
I01
sV102815
p5710
I01
sV205060
p5711
I01
sV139186
p5712
I01
sV24817
p5713
I01
sV24813
p5714
I01
sV49068
p5715
I01
sV80270
p5716
I01
sV80271
p5717
I01
sV256201
p5718
I01
sV41287
p5719
I01
sV240431
p5720
I01
sV238881
p5721
I01
sV203796
p5722
I01
sV44703
p5723
I01
sV85680
p5724
I01
sV219578
p5725
I01
sV146175
p5726
I01
sV173882
p5727
I01
sV252939
p5728
I01
sV163061
p5729
I01
sV42669
p5730
I01
sV265052
p5731
I01
sV239742
p5732
I01
sV204211
p5733
I01
sV164591
p5734
I01
sV164593
p5735
I01
sV164595
p5736
I01
sV164596
p5737
I01
sV83683
p5738
I01
sV29266
p5739
I01
sV39644
p5740
I01
sV83684
p5741
I01
sV129137
p5742
I01
sV163240
p5743
I01
sV63146
p5744
I01
sV168923
p5745
I01
sV163692
p5746
I01
sV112635
p5747
I01
sV18828
p5748
I01
sV83917
p5749
I01
sV33021
p5750
I01
sV18820
p5751
I01
sV175838
p5752
I01
sV232617
p5753
I01
sV59087
p5754
I01
sV175832
p5755
I01
sV131833
p5756
I01
sV194413
p5757
I01
sV257553
p5758
I01
sV18798
p5759
I01
sV158695
p5760
I01
sV142219
p5761
I01
sV132959
p5762
I01
sV132956
p5763
I01
sV149573
p5764
I01
sV84229
p5765
I01
sV213032
p5766
I01
sV216183
p5767
I01
sV90471
p5768
I01
sV252003
p5769
I01
sV30045
p5770
I01
sV202110
p5771
I01
sV243808
p5772
I01
sV202113
p5773
I01
sV187157
p5774
I01
sV187155
p5775
I01
sV243807
p5776
I01
sV212641
p5777
I01
sV28023
p5778
I01
sV126140
p5779
I01
sV109903
p5780
I01
sV207092
p5781
I01
sV72028
p5782
I01
sV263544
p5783
I01
sV202601
p5784
I01
sV129860
p5785
I01
sV129861
p5786
I01
sV263548
p5787
I01
sV13911
p5788
I01
sV172993
p5789
I01
sV230108
p5790
I01
sV111627
p5791
I01
sV111622
p5792
I01
sV234610
p5793
I01
sV76296
p5794
I01
sV38274
p5795
I01
sV72797
p5796
I01
sV35613
p5797
I01
sV263344
p5798
I01
sV130559
p5799
I01
sV118705
p5800
I01
sV217582
p5801
I01
sV114101
p5802
I01
sV178913
p5803
I01
sV195890
p5804
I01
sV256833
p5805
I01
sV181416
p5806
I01
sV132773
p5807
I01
sV32963
p5808
I01
sV245150
p5809
I01
sV127548
p5810
I01
sV127235
p5811
I01
sV127542
p5812
I01
sV5010
p5813
I01
sV130736
p5814
I01
sV183928
p5815
I01
sV25336
p5816
I01
sV145089
p5817
I01
sV240655
p5818
I01
sV145084
p5819
I01
sV240651
p5820
I01
sV130739
p5821
I01
sV23405
p5822
I01
sV74749
p5823
I01
sV262414
p5824
I01
sV235053
p5825
I01
sV248401
p5826
I01
sV109016
p5827
I01
sV205025
p5828
I01
sV82646
p5829
I01
sV195761
p5830
I01
sV109019
p5831
I01
sV195765
p5832
I01
sV135452
p5833
I01
sV214586
p5834
I01
sV214587
p5835
I01
sV215679
p5836
I01
sV165955
p5837
I01
sV98888
p5838
I01
sV215676
p5839
I01
sV32341
p5840
I01
sV233907
p5841
I01
sV166354
p5842
I01
sV166605
p5843
I01
sV166356
p5844
I01
sV166359
p5845
I01
sV205791
p5846
I01
sV205795
p5847
I01
sV6113
p5848
I01
sV39227
p5849
I01
sV227560
p5850
I01
sV177191
p5851
I01
sV121272
p5852
I01
sV7937
p5853
I01
sV121270
p5854
I01
sV57544
p5855
I01
sV163039
p5856
I01
sV9456
p5857
I01
sV74092
p5858
I01
sV152599
p5859
I01
sV65434
p5860
I01
sV173470
p5861
I01
sV173471
p5862
I01
sV247008
p5863
I01
sV223673
p5864
I01
sV16451
p5865
I01
sV21147
p5866
I01
sV21140
p5867
I01
sV261142
p5868
I01
sV61954
p5869
I01
sV154341
p5870
I01
sV162290
p5871
I01
sV250643
p5872
I01
sV63550
p5873
I01
sV121050
p5874
I01
sV152776
p5875
I01
sV176502
p5876
I01
sV254525
p5877
I01
sV182331
p5878
I01
sV12254
p5879
I01
sV147907
p5880
I01
sV49231
p5881
I01
sV49722
p5882
I01
sV37443
p5883
I01
sV223716
p5884
I01
sV94066
p5885
I01
sV38471
p5886
I01
sV38470
p5887
I01
sV138176
p5888
I01
sV184959
p5889
I01
sV158444
p5890
I01
sV17582
p5891
I01
sV158447
p5892
I01
sV70532
p5893
I01
sV232203
p5894
I01
sV4589
p5895
I01
sV192519
p5896
I01
sV167004
p5897
I01
sV4852
p5898
I01
sV4583
p5899
I01
sV4582
p5900
I01
sV163658
p5901
I01
sV108628
p5902
I01
sV158993
p5903
I01
sV96936
p5904
I01
sV58635
p5905
I01
sV164928
p5906
I01
sV222104
p5907
I01
sV222107
p5908
I01
sV164922
p5909
I01
sV264247
p5910
I01
sV60608
p5911
I01
sV164927
p5912
I01
sV90195
p5913
I01
sV112177
p5914
I01
sV54042
p5915
I01
sV33252
p5916
I01
sV33251
p5917
I01
sV141816
p5918
I01
sV234861
p5919
I01
sV246060
p5920
I01
sV31074
p5921
I01
sV17918
p5922
I01
sV207157
p5923
I01
sV252252
p5924
I01
sV87038
p5925
I01
sV45939
p5926
I01
sV252254
p5927
I01
sV252259
p5928
I01
sV229027
p5929
I01
sV45937
p5930
I01
sV229025
p5931
I01
sV216790
p5932
I01
sV146237
p5933
I01
sV248387
p5934
I01
sV251261
p5935
I01
sV96585
p5936
I01
sV66388
p5937
I01
sV243793
p5938
I01
sV254945
p5939
I01
sV66384
p5940
I01
sV104322
p5941
I01
sV67685
p5942
I01
sV109577
p5943
I01
sV106567
p5944
I01
sV213859
p5945
I01
sV161728
p5946
I01
sV67386
p5947
I01
sV161722
p5948
I01
sV214025
p5949
I01
sV186496
p5950
I01
sV238100
p5951
I01
sV18155
p5952
I01
sV234284
p5953
I01
sV8695
p5954
I01
sV87441
p5955
I01
sV8691
p5956
I01
sV109715
p5957
I01
sV206209
p5958
I01
sV101970
p5959
I01
sV119398
p5960
I01
sV39312
p5961
I01
sV126550
p5962
I01
sV110702
p5963
I01
sV110700
p5964
I01
sV110707
p5965
I01
sV180660
p5966
I01
sV31076
p5967
I01
sV50744
p5968
I01
sV173183
p5969
I01
sV189255
p5970
I01
sV189253
p5971
I01
sV189252
p5972
I01
sV189250
p5973
I01
sV61389
p5974
I01
sV131017
p5975
I01
sV8347
p5976
I01
sV224503
p5977
I01
sV228083
p5978
I01
sV159479
p5979
I01
sV100534
p5980
I01
sV100247
p5981
I01
sV66379
p5982
I01
sV151450
p5983
I01
sV151451
p5984
I01
sV212325
p5985
I01
sV24450
p5986
I01
sV189432
p5987
I01
sV189431
p5988
I01
sV261773
p5989
I01
sV213320
p5990
I01
sV155757
p5991
I01
sV22439
p5992
I01
sV220574
p5993
I01
sV198489
p5994
I01
sV26329
p5995
I01
sV69929
p5996
I01
sV69922
p5997
I01
sV232995
p5998
I01
sV69925
p5999
I01
sV5796
p6000
I01
sV156530
p6001
I01
sV32572
p6002
I01
sV177036
p6003
I01
sV208075
p6004
I01
sV3637
p6005
I01
sV75375
p6006
I01
sV82874
p6007
I01
sV124513
p6008
I01
sV37031
p6009
I01
sV55474
p6010
I01
sV99929
p6011
I01
sV201261
p6012
I01
sV118112
p6013
I01
sV185043
p6014
I01
sV165890
p6015
I01
sV214203
p6016
I01
sV114644
p6017
I01
sV19231
p6018
I01
sV117592
p6019
I01
sV203056
p6020
I01
sV104432
p6021
I01
sV104436
p6022
I01
sV52076
p6023
I01
sV141976
p6024
I01
sV97563
p6025
I01
sV97566
p6026
I01
sV167493
p6027
I01
sV244740
p6028
I01
sV240045
p6029
I01
sV13378
p6030
I01
sV244748
p6031
I01
sV138134
p6032
I01
sV101374
p6033
I01
sV251232
p6034
I01
sV118073
p6035
I01
sV253504
p6036
I01
sV24871
p6037
I01
sV21806
p6038
I01
sV21807
p6039
I01
sV42063
p6040
I01
sV42062
p6041
I01
sV204186
p6042
I01
sV153363
p6043
I01
sV256227
p6044
I01
sV218233
p6045
I01
sV148685
p6046
I01
sV99254
p6047
I01
sV44556
p6048
I01
sV44728
p6049
I01
sV93349
p6050
I01
sV133625
p6051
I01
sV196866
p6052
I01
sV173869
p6053
I01
sV205584
p6054
I01
sV196868
p6055
I01
sV42607
p6056
I01
sV6328
p6057
I01
sV99780
p6058
I01
sV204239
p6059
I01
sV212486
p6060
I01
sV196737
p6061
I01
sV162719
p6062
I01
sV161533
p6063
I01
sV29207
p6064
I01
sV99077
p6065
I01
sV176635
p6066
I01
sV176633
p6067
I01
sV71277
p6068
I01
sV187569
p6069
I01
sV66086
p6070
I01
sV121426
p6071
I01
sV54929
p6072
I01
sV149089
p6073
I01
sV236774
p6074
I01
sV112343
p6075
I01
sV236770
p6076
I01
sV123354
p6077
I01
sV81243
p6078
I01
sV152010
p6079
I01
sV159903
p6080
I01
sV257577
p6081
I01
sV223508
p6082
I01
sV219188
p6083
I01
sV226750
p6084
I01
sV226752
p6085
I01
sV247580
p6086
I01
sV157628
p6087
I01
sV255591
p6088
I01
sV132972
p6089
I01
sV140973
p6090
I01
sV68721
p6091
I01
sV137256
p6092
I01
sV40603
p6093
I01
sV83001
p6094
I01
sV204694
p6095
I01
sV169273
p6096
I01
sV57909
p6097
I01
sV28732
p6098
I01
sV28559
p6099
I01
sV28558
p6100
I01
sV197029
p6101
I01
sV160628
p6102
I01
sV217835
p6103
I01
sV197026
p6104
I01
sV217837
p6105
I01
sV197023
p6106
I01
sV197021
p6107
I01
sV157764
p6108
I01
sV169096
p6109
I01
sV174090
p6110
I01
sV35188
p6111
I01
sV73751
p6112
I01
sV77235
p6113
I01
sV134107
p6114
I01
sV151599
p6115
I01
sV197128
p6116
I01
sV261396
p6117
I01
sV254880
p6118
I01
sV72919
p6119
I01
sV144044
p6120
I01
sV103180
p6121
I01
sV225595
p6122
I01
sV222906
p6123
I01
sV225593
p6124
I01
sV186778
p6125
I01
sV35365
p6126
I01
sV145314
p6127
I01
sV114128
p6128
I01
sV188318
p6129
I01
sV262385
p6130
I01
sV165395
p6131
I01
sV89510
p6132
I01
sV165392
p6133
I01
sV87831
p6134
I01
sV131481
p6135
I01
sV156714
p6136
I01
sV131489
p6137
I01
sV151843
p6138
I01
sV151846
p6139
I01
sV25317
p6140
I01
sV23428
p6141
I01
sV205008
p6142
I01
sV115831
p6143
I01
sV174903
p6144
I01
sV259487
p6145
I01
sV73535
p6146
I01
sV92857
p6147
I01
sV92856
p6148
I01
sV206071
p6149
I01
sV104501
p6150
I01
sV165970
p6151
I01
sV96574
p6152
I01
sV139570
p6153
I01
sV195403
p6154
I01
sV259628
p6155
I01
sV255861
p6156
I01
sV22590
p6157
I01
sV131221
p6158
I01
sV6137
p6159
I01
sV105112
p6160
I01
sV215473
p6161
I01
sV124027
p6162
I01
sV58588
p6163
I01
sV94459
p6164
I01
sV16475
p6165
I01
sV197877
p6166
I01
sV220411
p6167
I01
sV121219
p6168
I01
sV63718
p6169
I01
sV104600
p6170
I01
sV65413
p6171
I01
sV65411
p6172
I01
sV173458
p6173
I01
sV61975
p6174
I01
sV219963
p6175
I01
sV236565
p6176
I01
sV173453
p6177
I01
sV111415
p6178
I01
sV75499
p6179
I01
sV260835
p6180
I01
sV260832
p6181
I01
sV240454
p6182
I01
sV26173
p6183
I01
sV204753
p6184
I01
sV154412
p6185
I01
sV21347
p6186
I01
sV46244
p6187
I01
sV46246
p6188
I01
sV139393
p6189
I01
sV3408
p6190
I01
sV103981
p6191
I01
sV249418
p6192
I01
sV4873
p6193
I01
sV76171
p6194
I01
sV138624
p6195
I01
sV116250
p6196
I01
sV57018
p6197
I01
sV90206
p6198
I01
sV2061
p6199
I01
sV199216
p6200
I01
sV2795
p6201
I01
sV71399
p6202
I01
sV236387
p6203
I01
sV38005
p6204
I01
sV14116
p6205
I01
sV190623
p6206
I01
sV176799
p6207
I01
sV163633
p6208
I01
sV108971
p6209
I01
sV96919
p6210
I01
sV17702
p6211
I01
sV62448
p6212
I01
sV164944
p6213
I01
sV68396
p6214
I01
sV62998
p6215
I01
sV198598
p6216
I01
sV172329
p6217
I01
sV60625
p6218
I01
sV106113
p6219
I01
sV60628
p6220
I01
sV172323
p6221
I01
sV185590
p6222
I01
sV37660
p6223
I01
sV113757
p6224
I01
sV73284
p6225
I01
sV36046
p6226
I01
sV185840
p6227
I01
sV112158
p6228
I01
sV255679
p6229
I01
sV54711
p6230
I01
sV203164
p6231
I01
sV20345
p6232
I01
sV222024
p6233
I01
sV34913
p6234
I01
sV94450
p6235
I01
sV216356
p6236
I01
sV83259
p6237
I01
sV202341
p6238
I01
sV216681
p6239
I01
sV44062
p6240
I01
sV146254
p6241
I01
sV47569
p6242
I01
sV47568
p6243
I01
sV47565
p6244
I01
sV41749
p6245
I01
sV109559
p6246
I01
sV196504
p6247
I01
sV225695
p6248
I01
sV109552
p6249
I01
sV109554
p6250
I01
sV225691
p6251
I01
sV65182
p6252
I01
sV29544
p6253
I01
sV156473
p6254
I01
sV78044
p6255
I01
sV238123
p6256
I01
sV173213
p6257
I01
sV118148
p6258
I01
sV206260
p6259
I01
sV206266
p6260
I01
sV6953
p6261
I01
sV111187
p6262
I01
sV5649
p6263
I01
sV235551
p6264
I01
sV86762
p6265
I01
sV86763
p6266
I01
sV159732
p6267
I01
sV92446
p6268
I01
sV123160
p6269
I01
sV147787
p6270
I01
sV217336
p6271
I01
sV226250
p6272
I01
sV219790
p6273
I01
sV250990
p6274
I01
sV203648
p6275
I01
sV187695
p6276
I01
sV239478
p6277
I01
sV229407
p6278
I01
sV214686
p6279
I01
sV259363
p6280
I01
sV100728
p6281
I01
sV259360
p6282
I01
sV234154
p6283
I01
sV144528
p6284
I01
sV259812
p6285
I01
sV67900
p6286
I01
sV56691
p6287
I01
sV249257
p6288
I01
sV192372
p6289
I01
sV199853
p6290
I01
sV145787
p6291
I01
sV159453
p6292
I01
sV224075
p6293
I01
sV28942
p6294
I01
sV245230
p6295
I01
sV22101
p6296
I01
sV22104
p6297
I01
sV82085
p6298
I01
sV22459
p6299
I01
sV35794
p6300
I01
sV86373
p6301
I01
sV257358
p6302
I01
sV250433
p6303
I01
sV89164
p6304
I01
sV4019
p6305
I01
sV197822
p6306
I01
sV258149
p6307
I01
sV24608
p6308
I01
sV122314
p6309
I01
sV55774
p6310
I01
sV118997
p6311
I01
sV220179
p6312
I01
sV226116
p6313
I01
sV96367
p6314
I01
sV200382
p6315
I01
sV86616
p6316
I01
sV252800
p6317
I01
sV167704
p6318
I01
sV110328
p6319
I01
sV104452
p6320
I01
sV218715
p6321
I01
sV262594
p6322
I01
sV235158
p6323
I01
sV230924
p6324
I01
sV201280
p6325
I01
sV181773
p6326
I01
sV181779
p6327
I01
sV51672
p6328
I01
sV55592
p6329
I01
sV86995
p6330
I01
sV69366
p6331
I01
sV157530
p6332
I01
sV25457
p6333
I01
sV222785
p6334
I01
sV25459
p6335
I01
sV262620
p6336
I01
sV80234
p6337
I01
sV251740
p6338
I01
sV251215
p6339
I01
sV196086
p6340
I01
sV193565
p6341
I01
sV24852
p6342
I01
sV162483
p6343
I01
sV124582
p6344
I01
sV44619
p6345
I01
sV260198
p6346
I01
sV7876
p6347
I01
sV185457
p6348
I01
sV201933
p6349
I01
sV194020
p6350
I01
sV139727
p6351
I01
sV163028
p6352
I01
sV139723
p6353
I01
sV198622
p6354
I01
sV166033
p6355
I01
sV166038
p6356
I01
sV195344
p6357
I01
sV196885
p6358
I01
sV98278
p6359
I01
sV99051
p6360
I01
sV193900
p6361
I01
sV70259
p6362
I01
sV59840
p6363
I01
sV158131
p6364
I01
sV121154
p6365
I01
sV121155
p6366
I01
sV53632
p6367
I01
sV124285
p6368
I01
sV47058
p6369
I01
sV29225
p6370
I01
sV187508
p6371
I01
sV176301
p6372
I01
sV176300
p6373
I01
sV8953
p6374
I01
sV176656
p6375
I01
sV37039
p6376
I01
sV21752
p6377
I01
sV71257
p6378
I01
sV249880
p6379
I01
sV84043
p6380
I01
sV243592
p6381
I01
sV51765
p6382
I01
sV257516
p6383
I01
sV137092
p6384
I01
sV102143
p6385
I01
sV123371
p6386
I01
sV233382
p6387
I01
sV80909
p6388
I01
sV202483
p6389
I01
sV125230
p6390
I01
sV157605
p6391
I01
sV1633
p6392
I01
sV142789
p6393
I01
sV52245
p6394
I01
sV223522
p6395
I01
sV223523
p6396
I01
sV49974
p6397
I01
sV134775
p6398
I01
sV45075
p6399
I01
sV179552
p6400
I01
sV169875
p6401
I01
sV164884
p6402
I01
sV169705
p6403
I01
sV178932
p6404
I01
sV44305
p6405
I01
sV243379
p6406
I01
sV243378
p6407
I01
sV243377
p6408
I01
sV44309
p6409
I01
sV14250
p6410
I01
sV33683
p6411
I01
sV108019
p6412
I01
sV168473
p6413
I01
sV108014
p6414
I01
sV160649
p6415
I01
sV79075
p6416
I01
sV68564
p6417
I01
sV220955
p6418
I01
sV1186
p6419
I01
sV207505
p6420
I01
sV234439
p6421
I01
sV197044
p6422
I01
sV207050
p6423
I01
sV179333
p6424
I01
sV179880
p6425
I01
sV59593
p6426
I01
sV30261
p6427
I01
sV179887
p6428
I01
sV34218
p6429
I01
sV175658
p6430
I01
sV30269
p6431
I01
sV120442
p6432
I01
sV34210
p6433
I01
sV258771
p6434
I01
sV35169
p6435
I01
sV13956
p6436
I01
sV120266
p6437
I01
sV258787
p6438
I01
sV89751
p6439
I01
sV256607
p6440
I01
sV91303
p6441
I01
sV91306
p6442
I01
sV225200
p6443
I01
sV91658
p6444
I01
sV234380
p6445
I01
sV222928
p6446
I01
sV131932
p6447
I01
sV156806
p6448
I01
sV183506
p6449
I01
sV67738
p6450
I01
sV144065
p6451
I01
sV89579
p6452
I01
sV132009
p6453
I01
sV47357
p6454
I01
sV256749
p6455
I01
sV127277
p6456
I01
sV59332
p6457
I01
sV31038
p6458
I01
sV156733
p6459
I01
sV25938
p6460
I01
sV164519
p6461
I01
sV80485
p6462
I01
sV63685
p6463
I01
sV74705
p6464
I01
sV217675
p6465
I01
sV72426
p6466
I01
sV67809
p6467
I01
sV262100
p6468
I01
sV161079
p6469
I01
sV196277
p6470
I01
sV161076
p6471
I01
sV92879
p6472
I01
sV100164
p6473
I01
sV39107
p6474
I01
sV206016
p6475
I01
sV16673
p6476
I01
sV220781
p6477
I01
sV171976
p6478
I01
sV19378
p6479
I01
sV205284
p6480
I01
sV14298
p6481
I01
sV259609
p6482
I01
sV139555
p6483
I01
sV88158
p6484
I01
sV82292
p6485
I01
sV8307
p6486
I01
sV255805
p6487
I01
sV180365
p6488
I01
sV60829
p6489
I01
sV224339
p6490
I01
sV69886
p6491
I01
sV153600
p6492
I01
sV154650
p6493
I01
sV120053
p6494
I01
sV135587
p6495
I01
sV258252
p6496
I01
sV16492
p6497
I01
sV22713
p6498
I01
sV236543
p6499
I01
sV204732
p6500
I01
sV6728
p6501
I01
sV154383
p6502
I01
sV227780
p6503
I01
sV184622
p6504
I01
sV162258
p6505
I01
sV191265
p6506
I01
sV43050
p6507
I01
sV192083
p6508
I01
sV154472
p6509
I01
sV2264
p6510
I01
sV240920
p6511
I01
sV28210
p6512
I01
sV215968
p6513
I01
sV190024
p6514
I01
sV200414
p6515
I01
sV63847
p6516
I01
sV38435
p6517
I01
sV249474
p6518
I01
sV158402
p6519
I01
sV38438
p6520
I01
sV116239
p6521
I01
sV90221
p6522
I01
sV116230
p6523
I01
sV167048
p6524
I01
sV94021
p6525
I01
sV9412
p6526
I01
sV235361
p6527
I01
sV93156
p6528
I01
sV7621
p6529
I01
sV235369
p6530
I01
sV160097
p6531
I01
sV172305
p6532
I01
sV17728
p6533
I01
sV172302
p6534
I01
sV206791
p6535
I01
sV17720
p6536
I01
sV15534
p6537
I01
sV102628
p6538
I01
sV237631
p6539
I01
sV120947
p6540
I01
sV222147
p6541
I01
sV185868
p6542
I01
sV53288
p6543
I01
sV121092
p6544
I01
sV251557
p6545
I01
sV180440
p6546
I01
sV62642
p6547
I01
sV122543
p6548
I01
sV255654
p6549
I01
sV54777
p6550
I01
sV48148
p6551
I01
sV48416
p6552
I01
sV243163
p6553
I01
sV146277
p6554
I01
sV243168
p6555
I01
sV67031
p6556
I01
sV163341
p6557
I01
sV198543
p6558
I01
sV108950
p6559
I01
sV157811
p6560
I01
sV59106
p6561
I01
sV112763
p6562
I01
sV171307
p6563
I01
sV191851
p6564
I01
sV123496
p6565
I01
sV233733
p6566
I01
sV176848
p6567
I01
sV37778
p6568
I01
sV143192
p6569
I01
sV109280
p6570
I01
sV237859
p6571
I01
sV226621
p6572
I01
sV37126
p6573
I01
sV146908
p6574
I01
sV159719
p6575
I01
sV221201
p6576
I01
sV151812
p6577
I01
sV136604
p6578
I01
sV126512
p6579
I01
sV126046
p6580
I01
sV217310
p6581
I01
sV61348
p6582
I01
sV143227
p6583
I01
sV88362
p6584
I01
sV61345
p6585
I01
sV100575
p6586
I01
sV40411
p6587
I01
sV188264
p6588
I01
sV244929
p6589
I01
sV88095
p6590
I01
sV108223
p6591
I01
sV199833
p6592
I01
sV192317
p6593
I01
sV192315
p6594
I01
sV242784
p6595
I01
sV409
p6596
I01
sV214408
p6597
I01
sV249186
p6598
I01
sV42922
p6599
I01
sV249185
p6600
I01
sV214401
p6601
I01
sV128707
p6602
I01
sV245257
p6603
I01
sV159388
p6604
I01
sV69962
p6605
I01
sV181299
p6606
I01
sV188298
p6607
I01
sV258127
p6608
I01
sV201044
p6609
I01
sV91516
p6610
I01
sV103372
p6611
I01
sV147372
p6612
I01
sV181577
p6613
I01
sV170214
p6614
I01
sV200005
p6615
I01
sV55750
p6616
I01
sV100390
p6617
I01
sV73277
p6618
I01
sV116425
p6619
I01
sV116427
p6620
I01
sV107879
p6621
I01
sV100434
p6622
I01
sV114687
p6623
I01
sV110305
p6624
I01
sV192760
p6625
I01
sV118158
p6626
I01
sV104479
p6627
I01
sV230413
p6628
I01
sV101622
p6629
I01
sV235175
p6630
I01
sV165583
p6631
I01
sV104473
p6632
I01
sV27147
p6633
I01
sV150544
p6634
I01
sV117885
p6635
I01
sV65868
p6636
I01
sV69342
p6637
I01
sV240554
p6638
I01
sV215207
p6639
I01
sV240000
p6640
I01
sV240001
p6641
I01
sV186922
p6642
I01
sV186572
p6643
I01
sV186299
p6644
I01
sV153012
p6645
I01
sV190350
p6646
I01
sV240559
p6647
I01
sV251767
p6648
I01
sV25129
p6649
I01
sV148312
p6650
I01
sV118035
p6651
I01
sV235285
p6652
I01
sV9628
p6653
I01
sV36232
p6654
I01
sV25124
p6655
I01
sV171898
p6656
I01
sV139121
p6657
I01
sV140885
p6658
I01
sV82340
p6659
I01
sV128266
p6660
I01
sV193544
p6661
I01
sV193546
p6662
I01
sV167185
p6663
I01
sV251495
p6664
I01
sV7857
p6665
I01
sV121392
p6666
I01
sV201953
p6667
I01
sV191524
p6668
I01
sV188995
p6669
I01
sV191527
p6670
I01
sV236156
p6671
I01
sV223152
p6672
I01
sV117333
p6673
I01
sV52037
p6674
I01
sV105706
p6675
I01
sV200244
p6676
I01
sV40859
p6677
I01
sV107416
p6678
I01
sV150678
p6679
I01
sV107418
p6680
I01
sV63470
p6681
I01
sV187526
p6682
I01
sV63475
p6683
I01
sV121177
p6684
I01
sV39656
p6685
I01
sV101847
p6686
I01
sV9625
p6687
I01
sV101845
p6688
I01
sV212960
p6689
I01
sV255000
p6690
I01
sV149049
p6691
I01
sV14893
p6692
I01
sV14890
p6693
I01
sV250017
p6694
I01
sV62873
p6695
I01
sV249861
p6696
I01
sV243579
p6697
I01
sV86519
p6698
I01
sV243574
p6699
I01
sV137075
p6700
I01
sV257531
p6701
I01
sV49952
p6702
I01
sV226068
p6703
I01
sV75331
p6704
I01
sV200608
p6705
I01
sV84246
p6706
I01
sV3231
p6707
I01
sV33455
p6708
I01
sV58193
p6709
I01
sV182125
p6710
I01
sV179530
p6711
I01
sV179532
p6712
I01
sV204275
p6713
I01
sV138478
p6714
I01
sV264611
p6715
I01
sV203558
p6716
I01
sV158051
p6717
I01
sV163407
p6718
I01
sV238080
p6719
I01
sV202604
p6720
I01
sV40315
p6721
I01
sV263347
p6722
I01
sV58337
p6723
I01
sV126986
p6724
I01
sV230255
p6725
I01
sV151625
p6726
I01
sV45896
p6727
I01
sV68586
p6728
I01
sV162768
p6729
I01
sV246129
p6730
I01
sV38740
p6731
I01
sV234412
p6732
I01
sV34892
p6733
I01
sV175637
p6734
I01
sV31118
p6735
I01
sV233506
p6736
I01
sV171532
p6737
I01
sV148881
p6738
I01
sV254847
p6739
I01
sV254846
p6740
I01
sV147426
p6741
I01
sV18157
p6742
I01
sV242957
p6743
I01
sV225261
p6744
I01
sV183522
p6745
I01
sV222946
p6746
I01
sV165507
p6747
I01
sV156829
p6748
I01
sV261259
p6749
I01
sV156821
p6750
I01
sV156822
p6751
I01
sV242044
p6752
I01
sV188600
p6753
I01
sV185277
p6754
I01
sV258827
p6755
I01
sV151084
p6756
I01
sV47330
p6757
I01
sV132064
p6758
I01
sV97851
p6759
I01
sV59318
p6760
I01
sV15050
p6761
I01
sV225082
p6762
I01
sV263524
p6763
I01
sV29605
p6764
I01
sV129883
p6765
I01
sV129884
p6766
I01
sV73860
p6767
I01
sV7688
p6768
I01
sV170666
p6769
I01
sV207925
p6770
I01
sV217698
p6771
I01
sV3889
p6772
I01
sV217692
p6773
I01
sV190348
p6774
I01
sV8441
p6775
I01
sV195780
p6776
I01
sV117653
p6777
I01
sV117656
p6778
I01
sV161058
p6779
I01
sV177248
p6780
I01
sV119148
p6781
I01
sV119149
p6782
I01
sV145350
p6783
I01
sV242861
p6784
I01
sV199429
p6785
I01
sV39166
p6786
I01
sV194877
p6787
I01
sV92636
p6788
I01
sV104398
p6789
I01
sV181387
p6790
I01
sV91926
p6791
I01
sV104393
p6792
I01
sV216049
p6793
I01
sV259199
p6794
I01
sV149866
p6795
I01
sV72359
p6796
I01
sV189006
p6797
I01
sV189559
p6798
I01
sV259661
p6799
I01
sV50919
p6800
I01
sV52937
p6801
I01
sV84805
p6802
I01
sV9489
p6803
I01
sV154679
p6804
I01
sV130790
p6805
I01
sV215438
p6806
I01
sV25605
p6807
I01
sV215920
p6808
I01
sV82954
p6809
I01
sV82956
p6810
I01
sV253977
p6811
I01
sV247062
p6812
I01
sV65458
p6813
I01
sV38987
p6814
I01
sV22731
p6815
I01
sV38982
p6816
I01
sV261477
p6817
I01
sV261479
p6818
I01
sV214341
p6819
I01
sV124933
p6820
I01
sV240496
p6821
I01
sV162236
p6822
I01
sV124938
p6823
I01
sV43039
p6824
I01
sV191204
p6825
I01
sV46962
p6826
I01
sV191208
p6827
I01
sV196924
p6828
I01
sV6270
p6829
I01
sV17528
p6830
I01
sV138668
p6831
I01
sV102421
p6832
I01
sV166571
p6833
I01
sV70000
p6834
I01
sV162589
p6835
I01
sV102429
p6836
I01
sV4526
p6837
I01
sV4521
p6838
I01
sV235618
p6839
I01
sV227106
p6840
I01
sV33189
p6841
I01
sV96952
p6842
I01
sV175404
p6843
I01
sV246330
p6844
I01
sV52751
p6845
I01
sV52756
p6846
I01
sV246961
p6847
I01
sV148506
p6848
I01
sV260257
p6849
I01
sV128706
p6850
I01
sV163184
p6851
I01
sV198789
p6852
I01
sV80006
p6853
I01
sV48435
p6854
I01
sV227719
p6855
I01
sV84654
p6856
I01
sV20470
p6857
I01
sV20474
p6858
I01
sV122910
p6859
I01
sV243146
p6860
I01
sV248321
p6861
I01
sV173587
p6862
I01
sV198568
p6863
I01
sV195005
p6864
I01
sV71356
p6865
I01
sV163362
p6866
I01
sV59126
p6867
I01
sV59120
p6868
I01
sV41780
p6869
I01
sV191830
p6870
I01
sV53401
p6871
I01
sV180817
p6872
I01
sV233750
p6873
I01
sV223485
p6874
I01
sV223953
p6875
I01
sV15930
p6876
I01
sV231448
p6877
I01
sV15934
p6878
I01
sV111144
p6879
I01
sV40781
p6880
I01
sV39371
p6881
I01
sV127108
p6882
I01
sV66361
p6883
I01
sV180603
p6884
I01
sV86720
p6885
I01
sV159771
p6886
I01
sV157836
p6887
I01
sV217999
p6888
I01
sV244820
p6889
I01
sV157341
p6890
I01
sV226212
p6891
I01
sV171182
p6892
I01
sV226217
p6893
I01
sV217995
p6894
I01
sV129941
p6895
I01
sV183770
p6896
I01
sV213696
p6897
I01
sV161873
p6898
I01
sV178499
p6899
I01
sV216867
p6900
I01
sV216866
p6901
I01
sV219464
p6902
I01
sV217197
p6903
I01
sV151160
p6904
I01
sV242548
p6905
I01
sV125037
p6906
I01
sV38170
p6907
I01
sV94582
p6908
I01
sV136481
p6909
I01
sV207711
p6910
I01
sV262806
p6911
I01
sV172566
p6912
I01
sV54872
p6913
I01
sV201719
p6914
I01
sV174975
p6915
I01
sV220136
p6916
I01
sV96328
p6917
I01
sV165035
p6918
I01
sV93757
p6919
I01
sV165746
p6920
I01
sV165744
p6921
I01
sV189765
p6922
I01
sV61325
p6923
I01
sV170271
p6924
I01
sV61328
p6925
I01
sV51587
p6926
I01
sV116919
p6927
I01
sV240790
p6928
I01
sV244271
p6929
I01
sV73294
p6930
I01
sV112256
p6931
I01
sV118176
p6932
I01
sV118171
p6933
I01
sV217730
p6934
I01
sV145163
p6935
I01
sV118178
p6936
I01
sV19296
p6937
I01
sV220689
p6938
I01
sV140539
p6939
I01
sV241955
p6940
I01
sV213342
p6941
I01
sV46892
p6942
I01
sV25419
p6943
I01
sV80764
p6944
I01
sV251709
p6945
I01
sV31931
p6946
I01
sV53982
p6947
I01
sV128939
p6948
I01
sV53987
p6949
I01
sV205659
p6950
I01
sV48242
p6951
I01
sV177055
p6952
I01
sV177721
p6953
I01
sV193522
p6954
I01
sV227488
p6955
I01
sV193331
p6956
I01
sV193525
p6957
I01
sV201973
p6958
I01
sV194061
p6959
I01
sV95560
p6960
I01
sV201975
p6961
I01
sV191013
p6962
I01
sV80496
p6963
I01
sV195255
p6964
I01
sV16828
p6965
I01
sV173809
p6966
I01
sV166072
p6967
I01
sV197900
p6968
I01
sV141662
p6969
I01
sV141660
p6970
I01
sV107473
p6971
I01
sV9605
p6972
I01
sV57336
p6973
I01
sV113637
p6974
I01
sV36967
p6975
I01
sV101869
p6976
I01
sV21713
p6977
I01
sV135798
p6978
I01
sV3684
p6979
I01
sV261316
p6980
I01
sV75245
p6981
I01
sV84006
p6982
I01
sV112323
p6983
I01
sV219263
p6984
I01
sV212904
p6985
I01
sV65386
p6986
I01
sV134228
p6987
I01
sV203719
p6988
I01
sV129116
p6989
I01
sV249248
p6990
I01
sV45526
p6991
I01
sV85714
p6992
I01
sV133797
p6993
I01
sV254736
p6994
I01
sV137052
p6995
I01
sV86534
p6996
I01
sV254731
p6997
I01
sV190760
p6998
I01
sV106075
p6999
I01
sV164515
p7000
I01
sV157138
p7001
I01
sV68740
p7002
I01
sV255281
p7003
I01
sV158617
p7004
I01
sV255286
p7005
I01
sV13244
p7006
I01
sV193946
p7007
I01
sV232345
p7008
I01
sV19147
p7009
I01
sV193943
p7010
I01
sV2859
p7011
I01
sV178642
p7012
I01
sV202193
p7013
I01
sV3335
p7014
I01
sV112587
p7015
I01
sV112586
p7016
I01
sV230272
p7017
I01
sV58310
p7018
I01
sV104923
p7019
I01
sV230277
p7020
I01
sV246105
p7021
I01
sV94775
p7022
I01
sV62236
p7023
I01
sV94805
p7024
I01
sV38764
p7025
I01
sV232694
p7026
I01
sV252550
p7027
I01
sV242681
p7028
I01
sV103166
p7029
I01
sV103165
p7030
I01
sV103168
p7031
I01
sV87628
p7032
I01
sV183544
p7033
I01
sV186714
p7034
I01
sV256643
p7035
I01
sV256644
p7036
I01
sV184806
p7037
I01
sV29919
p7038
I01
sV40849
p7039
I01
sV83711
p7040
I01
sV258849
p7041
I01
sV47319
p7042
I01
sV258845
p7043
I01
sV136548
p7044
I01
sV87721
p7045
I01
sV195819
p7046
I01
sV109897
p7047
I01
sV171047
p7048
I01
sV171510
p7049
I01
sV73840
p7050
I01
sV163882
p7051
I01
sV170646
p7052
I01
sV216105
p7053
I01
sV144174
p7054
I01
sV8460
p7055
I01
sV8466
p7056
I01
sV72463
p7057
I01
sV73591
p7058
I01
sV56727
p7059
I01
sV39147
p7060
I01
sV100128
p7061
I01
sV34274
p7062
I01
sV228473
p7063
I01
sV232932
p7064
I01
sV224114
p7065
I01
sV19339
p7066
I01
sV103834
p7067
I01
sV34276
p7068
I01
sV263816
p7069
I01
sV103832
p7070
I01
sV117184
p7071
I01
sV51930
p7072
I01
sV233986
p7073
I01
sV117182
p7074
I01
sV84825
p7075
I01
sV39154
p7076
I01
sV84822
p7077
I01
sV189026
p7078
I01
sV204904
p7079
I01
sV215904
p7080
I01
sV204900
p7081
I01
sV215901
p7082
I01
sV64835
p7083
I01
sV26444
p7084
I01
sV224378
p7085
I01
sV151205
p7086
I01
sV165481
p7087
I01
sV151203
p7088
I01
sV201367
p7089
I01
sV165488
p7090
I01
sV150000
p7091
I01
sV241566
p7092
I01
sV24972
p7093
I01
sV181052
p7094
I01
sV160510
p7095
I01
sV116587
p7096
I01
sV114725
p7097
I01
sV199018
p7098
I01
sV240965
p7099
I01
sV159195
p7100
I01
sV199016
p7101
I01
sV204843
p7102
I01
sV114729
p7103
I01
sV189763
p7104
I01
sV191220
p7105
I01
sV5928
p7106
I01
sV5929
p7107
I01
sV35866
p7108
I01
sV200101
p7109
I01
sV190573
p7110
I01
sV196902
p7111
I01
sV116768
p7112
I01
sV224809
p7113
I01
sV130111
p7114
I01
sV218052
p7115
I01
sV247112
p7116
I01
sV25085
p7117
I01
sV102400
p7118
I01
sV70024
p7119
I01
sV244424
p7120
I01
sV170274
p7121
I01
sV220476
p7122
I01
sV246352
p7123
I01
sV17766
p7124
I01
sV240795
p7125
I01
sV62934
p7126
I01
sV62936
p7127
I01
sV62931
p7128
I01
sV64301
p7129
I01
sV222183
p7130
I01
sV251510
p7131
I01
sV240792
p7132
I01
sV118208
p7133
I01
sV118209
p7134
I01
sV146052
p7135
I01
sV146053
p7136
I01
sV135326
p7137
I01
sV135891
p7138
I01
sV42763
p7139
I01
sV198765
p7140
I01
sV80535
p7141
I01
sV135329
p7142
I01
sV134057
p7143
I01
sV203102
p7144
I01
sV20901
p7145
I01
sV211863
p7146
I01
sV122585
p7147
I01
sV203458
p7148
I01
sV122587
p7149
I01
sV252205
p7150
I01
sV216662
p7151
I01
sV53793
p7152
I01
sV221980
p7153
I01
sV39709
p7154
I01
sV202855
p7155
I01
sV39702
p7156
I01
sV7310
p7157
I01
sV236677
p7158
I01
sV190681
p7159
I01
sV236857
p7160
I01
sV176086
p7161
I01
sV176737
p7162
I01
sV147573
p7163
I01
sV108916
p7164
I01
sV205883
p7165
I01
sV163222
p7166
I01
sV154617
p7167
I01
sV123988
p7168
I01
sV7039
p7169
I01
sV158200
p7170
I01
sV156185
p7171
I01
sV174778
p7172
I01
sV178258
p7173
I01
sV89044
p7174
I01
sV185028
p7175
I01
sV223978
p7176
I01
sV37228
p7177
I01
sV157580
p7178
I01
sV231782
p7179
I01
sV147895
p7180
I01
sV147890
p7181
I01
sV123186
p7182
I01
sV119315
p7183
I01
sV119312
p7184
I01
sV159752
p7185
I01
sV86703
p7186
I01
sV202279
p7187
I01
sV140534
p7188
I01
sV182881
p7189
I01
sV136698
p7190
I01
sV212108
p7191
I01
sV226238
p7192
I01
sV24363
p7193
I01
sV182889
p7194
I01
sV164655
p7195
I01
sV1006
p7196
I01
sV67430
p7197
I01
sV180486
p7198
I01
sV224587
p7199
I01
sV207737
p7200
I01
sV262860
p7201
I01
sV28703
p7202
I01
sV262864
p7203
I01
sV85632
p7204
I01
sV230042
p7205
I01
sV108267
p7206
I01
sV50319
p7207
I01
sV109792
p7208
I01
sV229604
p7209
I01
sV8613
p7210
I01
sV109799
p7211
I01
sV38150
p7212
I01
sV228800
p7213
I01
sV228801
p7214
I01
sV246648
p7215
I01
sV89107
p7216
I01
sV160534
p7217
I01
sV201775
p7218
I01
sV73856
p7219
I01
sV238544
p7220
I01
sV43227
p7221
I01
sV19103
p7222
I01
sV51036
p7223
I01
sV181537
p7224
I01
sV170258
p7225
I01
sV214993
p7226
I01
sV91888
p7227
I01
sV189705
p7228
I01
sV225765
p7229
I01
sV245074
p7230
I01
sV111343
p7231
I01
sV61657
p7232
I01
sV91552
p7233
I01
sV155061
p7234
I01
sV180220
p7235
I01
sV74684
p7236
I01
sV23832
p7237
I01
sV217718
p7238
I01
sV230452
p7239
I01
sV25412
p7240
I01
sV140511
p7241
I01
sV181287
p7242
I01
sV195663
p7243
I01
sV258755
p7244
I01
sV206176
p7245
I01
sV206172
p7246
I01
sV214191
p7247
I01
sV65821
p7248
I01
sV155204
p7249
I01
sV201191
p7250
I01
sV215710
p7251
I01
sV251729
p7252
I01
sV171858
p7253
I01
sV74464
p7254
I01
sV82561
p7255
I01
sV88274
p7256
I01
sV193502
p7257
I01
sV139470
p7258
I01
sV46051
p7259
I01
sV116977
p7260
I01
sV56268
p7261
I01
sV52214
p7262
I01
sV101087
p7263
I01
sV235795
p7264
I01
sV53169
p7265
I01
sV121359
p7266
I01
sV117370
p7267
I01
sV247748
p7268
I01
sV247744
p7269
I01
sV32132
p7270
I01
sV245922
p7271
I01
sV199327
p7272
I01
sV192404
p7273
I01
sV236115
p7274
I01
sV119969
p7275
I01
sV124875
p7276
I01
sV154552
p7277
I01
sV128938
p7278
I01
sV124878
p7279
I01
sV199451
p7280
I01
sV121134
p7281
I01
sV57353
p7282
I01
sV243064
p7283
I01
sV219240
p7284
I01
sV49199
p7285
I01
sV249790
p7286
I01
sV84027
p7287
I01
sV199931
p7288
I01
sV261330
p7289
I01
sV45508
p7290
I01
sV4975
p7291
I01
sV203730
p7292
I01
sV45505
p7293
I01
sV254759
p7294
I01
sV254750
p7295
I01
sV48762
p7296
I01
sV125293
p7297
I01
sV158636
p7298
I01
sV157115
p7299
I01
sV204705
p7300
I01
sV58155
p7301
I01
sV98968
p7302
I01
sV138431
p7303
I01
sV203593
p7304
I01
sV164827
p7305
I01
sV181876
p7306
I01
sV232368
p7307
I01
sV167329
p7308
I01
sV232361
p7309
I01
sV162797
p7310
I01
sV237243
p7311
I01
sV70762
p7312
I01
sV13227
p7313
I01
sV233099
p7314
I01
sV33373
p7315
I01
sV147393
p7316
I01
sV163441
p7317
I01
sV163447
p7318
I01
sV62746
p7319
I01
sV62218
p7320
I01
sV104902
p7321
I01
sV169667
p7322
I01
sV193456
p7323
I01
sV20029
p7324
I01
sV20028
p7325
I01
sV175369
p7326
I01
sV237422
p7327
I01
sV186089
p7328
I01
sV246162
p7329
I01
sV237428
p7330
I01
sV251983
p7331
I01
sV36639
p7332
I01
sV137039
p7333
I01
sV112705
p7334
I01
sV132206
p7335
I01
sV41627
p7336
I01
sV138927
p7337
I01
sV222234
p7338
I01
sV256664
p7339
I01
sV129772
p7340
I01
sV99617
p7341
I01
sV143098
p7342
I01
sV183560
p7343
I01
sV183566
p7344
I01
sV40861
p7345
I01
sV137964
p7346
I01
sV44366
p7347
I01
sV171284
p7348
I01
sV44368
p7349
I01
sV171288
p7350
I01
sV216124
p7351
I01
sV111099
p7352
I01
sV262308
p7353
I01
sV207695
p7354
I01
sV262303
p7355
I01
sV89843
p7356
I01
sV47667
p7357
I01
sV263628
p7358
I01
sV59350
p7359
I01
sV87706
p7360
I01
sV169365
p7361
I01
sV197303
p7362
I01
sV95087
p7363
I01
sV206344
p7364
I01
sV206614
p7365
I01
sV31629
p7366
I01
sV233546
p7367
I01
sV35100
p7368
I01
sV31621
p7369
I01
sV207960
p7370
I01
sV140041
p7371
I01
sV117962
p7372
I01
sV207967
p7373
I01
sV55471
p7374
I01
sV249443
p7375
I01
sV235110
p7376
I01
sV196217
p7377
I01
sV161015
p7378
I01
sV257132
p7379
I01
sV86110
p7380
I01
sV224179
p7381
I01
sV107332
p7382
I01
sV95881
p7383
I01
sV66115
p7384
I01
sV258867
p7385
I01
sV77059
p7386
I01
sV35810
p7387
I01
sV217529
p7388
I01
sV189047
p7389
I01
sV109138
p7390
I01
sV8810
p7391
I01
sV150242
p7392
I01
sV245904
p7393
I01
sV223342
p7394
I01
sV150241
p7395
I01
sV249006
p7396
I01
sV131514
p7397
I01
sV131510
p7398
I01
sV4154
p7399
I01
sV86077
p7400
I01
sV86075
p7401
I01
sV159202
p7402
I01
sV201349
p7403
I01
sV160493
p7404
I01
sV197294
p7405
I01
sV197299
p7406
I01
sV28119
p7407
I01
sV130578
p7408
I01
sV214388
p7409
I01
sV150065
p7410
I01
sV92947
p7411
I01
sV116568
p7412
I01
sV204829
p7413
I01
sV154499
p7414
I01
sV97887
p7415
I01
sV51952
p7416
I01
sV15086
p7417
I01
sV93016
p7418
I01
sV152524
p7419
I01
sV196969
p7420
I01
sV196968
p7421
I01
sV17567
p7422
I01
sV3481
p7423
I01
sV186865
p7424
I01
sV215387
p7425
I01
sV240181
p7426
I01
sV74094
p7427
I01
sV235301
p7428
I01
sV248754
p7429
I01
sV104680
p7430
I01
sV235659
p7431
I01
sV74098
p7432
I01
sV253246
p7433
I01
sV220499
p7434
I01
sV135527
p7435
I01
sV128561
p7436
I01
sV135528
p7437
I01
sV181078
p7438
I01
sV85256
p7439
I01
sV165540
p7440
I01
sV250911
p7441
I01
sV27931
p7442
I01
sV95690
p7443
I01
sV17781
p7444
I01
sV101860
p7445
I01
sV64361
p7446
I01
sV198745
p7447
I01
sV80511
p7448
I01
sV128743
p7449
I01
sV251064
p7450
I01
sV254586
p7451
I01
sV152799
p7452
I01
sV254580
p7453
I01
sV42216
p7454
I01
sV42966
p7455
I01
sV199437
p7456
I01
sV203474
p7457
I01
sV204316
p7458
I01
sV255077
p7459
I01
sV223995
p7460
I01
sV218446
p7461
I01
sV39729
p7462
I01
sV71310
p7463
I01
sV54538
p7464
I01
sV236879
p7465
I01
sV105220
p7466
I01
sV236876
p7467
I01
sV183208
p7468
I01
sV176716
p7469
I01
sV236873
p7470
I01
sV70405
p7471
I01
sV146835
p7472
I01
sV180307
p7473
I01
sV161784
p7474
I01
sV63359
p7475
I01
sV142623
p7476
I01
sV37244
p7477
I01
sV176579
p7478
I01
sV180855
p7479
I01
sV117839
p7480
I01
sV255361
p7481
I01
sV68462
p7482
I01
sV119373
p7483
I01
sV60224
p7484
I01
sV67186
p7485
I01
sV149069
p7486
I01
sV67634
p7487
I01
sV252326
p7488
I01
sV187614
p7489
I01
sV168772
p7490
I01
sV50235
p7491
I01
sV242270
p7492
I01
sV226322
p7493
I01
sV242275
p7494
I01
sV197765
p7495
I01
sV47876
p7496
I01
sV217954
p7497
I01
sV217955
p7498
I01
sV68378
p7499
I01
sV158869
p7500
I01
sV68201
p7501
I01
sV226326
p7502
I01
sV157306
p7503
I01
sV158867
p7504
I01
sV252120
p7505
I01
sV171492
p7506
I01
sV29818
p7507
I01
sV129902
p7508
I01
sV108534
p7509
I01
sV37867
p7510
I01
sV147677
p7511
I01
sV108539
p7512
I01
sV89699
p7513
I01
sV14552
p7514
I01
sV28271
p7515
I01
sV28277
p7516
I01
sV106856
p7517
I01
sV13783
p7518
I01
sV13780
p7519
I01
sV171724
p7520
I01
sV50948
p7521
I01
sV228538
p7522
I01
sV50945
p7523
I01
sV118441
p7524
I01
sV165073
p7525
I01
sV159317
p7526
I01
sV242493
p7527
I01
sV66585
p7528
I01
sV118424
p7529
I01
sV27694
p7530
I01
sV103312
p7531
I01
sV19120
p7532
I01
sV19124
p7533
I01
sV144835
p7534
I01
sV214602
p7535
I01
sV130347
p7536
I01
sV130349
p7537
I01
sV240752
p7538
I01
sV243962
p7539
I01
sV220390
p7540
I01
sV23368
p7541
I01
sV61580
p7542
I01
sV82761
p7543
I01
sV82764
p7544
I01
sV74066
p7545
I01
sV195607
p7546
I01
sV73120
p7547
I01
sV177548
p7548
I01
sV22183
p7549
I01
sV241915
p7550
I01
sV252649
p7551
I01
sV96496
p7552
I01
sV260917
p7553
I01
sV80720
p7554
I01
sV140398
p7555
I01
sV19787
p7556
I01
sV227445
p7557
I01
sV145497
p7558
I01
sV88259
p7559
I01
sV223281
p7560
I01
sV161975
p7561
I01
sV166524
p7562
I01
sV259236
p7563
I01
sV69496
p7564
I01
sV154790
p7565
I01
sV52894
p7566
I01
sV121333
p7567
I01
sV121335
p7568
I01
sV95527
p7569
I01
sV32158
p7570
I01
sV196471
p7571
I01
sV6382
p7572
I01
sV117397
p7573
I01
sV52091
p7574
I01
sV184580
p7575
I01
sV60182
p7576
I01
sV186980
p7577
I01
sV2389
p7578
I01
sV244099
p7579
I01
sV187586
p7580
I01
sV128355
p7581
I01
sV135615
p7582
I01
sV236793
p7583
I01
sV75203
p7584
I01
sV79952
p7585
I01
sV249809
p7586
I01
sV204123
p7587
I01
sV249777
p7588
I01
sV249772
p7589
I01
sV218430
p7590
I01
sV53143
p7591
I01
sV162407
p7592
I01
sV2160
p7593
I01
sV192650
p7594
I01
sV190237
p7595
I01
sV200661
p7596
I01
sV96879
p7597
I01
sV96878
p7598
I01
sV98988
p7599
I01
sV60724
p7600
I01
sV120828
p7601
I01
sV113673
p7602
I01
sV148480
p7603
I01
sV36929
p7604
I01
sV90765
p7605
I01
sV235519
p7606
I01
sV147379
p7607
I01
sV230236
p7608
I01
sV14968
p7609
I01
sV176963
p7610
I01
sV90420
p7611
I01
sV45385
p7612
I01
sV20551
p7613
I01
sV20002
p7614
I01
sV176650
p7615
I01
sV20558
p7616
I01
sV260005
p7617
I01
sV186069
p7618
I01
sV115639
p7619
I01
sV42439
p7620
I01
sV251302
p7621
I01
sV146571
p7622
I01
sV242648
p7623
I01
sV136769
p7624
I01
sV136768
p7625
I01
sV85805
p7626
I01
sV136767
p7627
I01
sV48732
p7628
I01
sV264589
p7629
I01
sV247279
p7630
I01
sV106443
p7631
I01
sV169693
p7632
I01
sV193669
p7633
I01
sV238021
p7634
I01
sV171265
p7635
I01
sV163468
p7636
I01
sV178601
p7637
I01
sV178350
p7638
I01
sV164114
p7639
I01
sV109324
p7640
I01
sV164110
p7641
I01
sV47606
p7642
I01
sV109329
p7643
I01
sV195853
p7644
I01
sV237912
p7645
I01
sV8790
p7646
I01
sV34383
p7647
I01
sV179913
p7648
I01
sV175927
p7649
I01
sV174037
p7650
I01
sV26893
p7651
I01
sV263585
p7652
I01
sV73801
p7653
I01
sV238971
p7654
I01
sV225394
p7655
I01
sV224484
p7656
I01
sV229341
p7657
I01
sV177832
p7658
I01
sV234070
p7659
I01
sV234071
p7660
I01
sV234076
p7661
I01
sV39184
p7662
I01
sV67842
p7663
I01
sV184211
p7664
I01
sV184213
p7665
I01
sV91262
p7666
I01
sV224156
p7667
I01
sV7594
p7668
I01
sV224151
p7669
I01
sV212245
p7670
I01
sV242021
p7671
I01
sV245557
p7672
I01
sV259680
p7673
I01
sV241614
p7674
I01
sV259685
p7675
I01
sV127413
p7676
I01
sV206898
p7677
I01
sV26407
p7678
I01
sV257039
p7679
I01
sV174749
p7680
I01
sV212364
p7681
I01
sV206897
p7682
I01
sV258081
p7683
I01
sV4131
p7684
I01
sV184062
p7685
I01
sV151245
p7686
I01
sV20049
p7687
I01
sV116546
p7688
I01
sV116545
p7689
I01
sV145264
p7690
I01
sV204809
p7691
I01
sV244393
p7692
I01
sV256390
p7693
I01
sV148137
p7694
I01
sV230797
p7695
I01
sV185160
p7696
I01
sV169967
p7697
I01
sV148138
p7698
I01
sV121097
p7699
I01
sV55236
p7700
I01
sV32207
p7701
I01
sV96003
p7702
I01
sV32384
p7703
I01
sV5965
p7704
I01
sV5966
p7705
I01
sV51202
p7706
I01
sV56767
p7707
I01
sV79894
p7708
I01
sV90952
p7709
I01
sV13439
p7710
I01
sV244175
p7711
I01
sV130620
p7712
I01
sV4541
p7713
I01
sV153792
p7714
I01
sV148259
p7715
I01
sV104151
p7716
I01
sV128509
p7717
I01
sV82243
p7718
I01
sV140232
p7719
I01
sV82939
p7720
I01
sV124331
p7721
I01
sV153248
p7722
I01
sV27917
p7723
I01
sV146760
p7724
I01
sV146766
p7725
I01
sV118247
p7726
I01
sV25220
p7727
I01
sV139337
p7728
I01
sV189694
p7729
I01
sV183
p7730
I01
sV157226
p7731
I01
sV166755
p7732
I01
sV166754
p7733
I01
sV75697
p7734
I01
sV42726
p7735
I01
sV34431
p7736
I01
sV7355
p7737
I01
sV154734
p7738
I01
sV125620
p7739
I01
sV105202
p7740
I01
sV105205
p7741
I01
sV236632
p7742
I01
sV184424
p7743
I01
sV70428
p7744
I01
sV123419
p7745
I01
sV113809
p7746
I01
sV125319
p7747
I01
sV142644
p7748
I01
sV223936
p7749
I01
sV223934
p7750
I01
sV20497
p7751
I01
sV20490
p7752
I01
sV41457
p7753
I01
sV119307
p7754
I01
sV22896
p7755
I01
sV157547
p7756
I01
sV229067
p7757
I01
sV159794
p7758
I01
sV29879
p7759
I01
sV133540
p7760
I01
sV29874
p7761
I01
sV2978
p7762
I01
sV87485
p7763
I01
sV32531
p7764
I01
sV127466
p7765
I01
sV68994
p7766
I01
sV68999
p7767
I01
sV48885
p7768
I01
sV189891
p7769
I01
sV187098
p7770
I01
sV264468
p7771
I01
sV76315
p7772
I01
sV76316
p7773
I01
sV31297
p7774
I01
sV192828
p7775
I01
sV33836
p7776
I01
sV37845
p7777
I01
sV37848
p7778
I01
sV151492
p7779
I01
sV62022
p7780
I01
sV46978
p7781
I01
sV72812
p7782
I01
sV62028
p7783
I01
sV225499
p7784
I01
sV252652
p7785
I01
sV229138
p7786
I01
sV229641
p7787
I01
sV175024
p7788
I01
sV183243
p7789
I01
sV171740
p7790
I01
sV228517
p7791
I01
sV133611
p7792
I01
sV89411
p7793
I01
sV89413
p7794
I01
sV118403
p7795
I01
sV217284
p7796
I01
sV160574
p7797
I01
sV214954
p7798
I01
sV127316
p7799
I01
sV213671
p7800
I01
sV156514
p7801
I01
sV156515
p7802
I01
sV216881
p7803
I01
sV67470
p7804
I01
sV111380
p7805
I01
sV186545
p7806
I01
sV217755
p7807
I01
sV185081
p7808
I01
sV185086
p7809
I01
sV126955
p7810
I01
sV217028
p7811
I01
sV51692
p7812
I01
sV140000
p7813
I01
sV72766
p7814
I01
sV136247
p7815
I01
sV213456
p7816
I01
sV70555
p7817
I01
sV16291
p7818
I01
sV213459
p7819
I01
sV194970
p7820
I01
sV201625
p7821
I01
sV183762
p7822
I01
sV74424
p7823
I01
sV6677
p7824
I01
sV215791
p7825
I01
sV259740
p7826
I01
sV42534
p7827
I01
sV117001
p7828
I01
sV8286
p7829
I01
sV131145
p7830
I01
sV177743
p7831
I01
sV161226
p7832
I01
sV221642
p7833
I01
sV215530
p7834
I01
sV92028
p7835
I01
sV159152
p7836
I01
sV120336
p7837
I01
sV100311
p7838
I01
sV154773
p7839
I01
sV187831
p7840
I01
sV16333
p7841
I01
sV32175
p7842
I01
sV32178
p7843
I01
sV93990
p7844
I01
sV236401
p7845
I01
sV214226
p7846
I01
sV236404
p7847
I01
sV236409
p7848
I01
sV236408
p7849
I01
sV65756
p7850
I01
sV77734
p7851
I01
sV257954
p7852
I01
sV141604
p7853
I01
sV227391
p7854
I01
sV119430
p7855
I01
sV69619
p7856
I01
sV240088
p7857
I01
sV177300
p7858
I01
sV86930
p7859
I01
sV26235
p7860
I01
sV170075
p7861
I01
sV21223
p7862
I01
sV135262
p7863
I01
sV128331
p7864
I01
sV135269
p7865
I01
sV128336
p7866
I01
sV167107
p7867
I01
sV162422
p7868
I01
sV204147
p7869
I01
sV45545
p7870
I01
sV134247
p7871
I01
sV41841
p7872
I01
sV53127
p7873
I01
sV99836
p7874
I01
sV90565
p7875
I01
sV58117
p7876
I01
sV49486
p7877
I01
sV58118
p7878
I01
sV20796
p7879
I01
sV116066
p7880
I01
sV106011
p7881
I01
sV94671
p7882
I01
sV62569
p7883
I01
sV106018
p7884
I01
sV122663
p7885
I01
sV260396
p7886
I01
sV38143
p7887
I01
sV203888
p7888
I01
sV172042
p7889
I01
sV203881
p7890
I01
sV179026
p7891
I01
sV125124
p7892
I01
sV57398
p7893
I01
sV146377
p7894
I01
sV118384
p7895
I01
sV113650
p7896
I01
sV84795
p7897
I01
sV147354
p7898
I01
sV256339
p7899
I01
sV48286
p7900
I01
sV256336
p7901
I01
sV122407
p7902
I01
sV248084
p7903
I01
sV194377
p7904
I01
sV248087
p7905
I01
sV252536
p7906
I01
sV146518
p7907
I01
sV249718
p7908
I01
sV168106
p7909
I01
sV85828
p7910
I01
sV117984
p7911
I01
sV84428
p7912
I01
sV194544
p7913
I01
sV41669
p7914
I01
sV87688
p7915
I01
sV222273
p7916
I01
sV6875
p7917
I01
sV175158
p7918
I01
sV15761
p7919
I01
sV40826
p7920
I01
sV171241
p7921
I01
sV71209
p7922
I01
sV58924
p7923
I01
sV198286
p7924
I01
sV18839
p7925
I01
sV229581
p7926
I01
sV169410
p7927
I01
sV206301
p7928
I01
sV88015
p7929
I01
sV237977
p7930
I01
sV174055
p7931
I01
sV95043
p7932
I01
sV95042
p7933
I01
sV95040
p7934
I01
sV183992
p7935
I01
sV149404
p7936
I01
sV189935
p7937
I01
sV149401
p7938
I01
sV226607
p7939
I01
sV173089
p7940
I01
sV172142
p7941
I01
sV143320
p7942
I01
sV245398
p7943
I01
sV79456
p7944
I01
sV196493
p7945
I01
sV88420
p7946
I01
sV257176
p7947
I01
sV257170
p7948
I01
sV243938
p7949
I01
sV86159
p7950
I01
sV198390
p7951
I01
sV162993
p7952
I01
sV86156
p7953
I01
sV28483
p7954
I01
sV170195
p7955
I01
sV219509
p7956
I01
sV1251
p7957
I01
sV28337
p7958
I01
sV89881
p7959
I01
sV131551
p7960
I01
sV30588
p7961
I01
sV190910
p7962
I01
sV184251
p7963
I01
sV88682
p7964
I01
sV61421
p7965
I01
sV257019
p7966
I01
sV159248
p7967
I01
sV257015
p7968
I01
sV257014
p7969
I01
sV165422
p7970
I01
sV151262
p7971
I01
sV201308
p7972
I01
sV201658
p7973
I01
sV113934
p7974
I01
sV201656
p7975
I01
sV207435
p7976
I01
sV32419
p7977
I01
sV107994
p7978
I01
sV116529
p7979
I01
sV56167
p7980
I01
sV38023
p7981
I01
sV73359
p7982
I01
sV92908
p7983
I01
sV81689
p7984
I01
sV114744
p7985
I01
sV192022
p7986
I01
sV81687
p7987
I01
sV96024
p7988
I01
sV220722
p7989
I01
sV220721
p7990
I01
sV214985
p7991
I01
sV93058
p7992
I01
sV148110
p7993
I01
sV150206
p7994
I01
sV127432
p7995
I01
sV103503
p7996
I01
sV51222
p7997
I01
sV253462
p7998
I01
sV51736
p7999
I01
sV183817
p8000
I01
sV106223
p8001
I01
sV214635
p8002
I01
sV56705
p8003
I01
sV56704
p8004
I01
sV130600
p8005
I01
sV7553
p8006
I01
sV218036
p8007
I01
sV218031
p8008
I01
sV130607
p8009
I01
sV186826
p8010
I01
sV240336
p8011
I01
sV175735
p8012
I01
sV198910
p8013
I01
sV85212
p8014
I01
sV155968
p8015
I01
sV155589
p8016
I01
sV212011
p8017
I01
sV46175
p8018
I01
sV18040
p8019
I01
sV99337
p8020
I01
sV64416
p8021
I01
sV45481
p8022
I01
sV154231
p8023
I01
sV194145
p8024
I01
sV201873
p8025
I01
sV191421
p8026
I01
sV146741
p8027
I01
sV185552
p8028
I01
sV46280
p8029
I01
sV163108
p8030
I01
sV135386
p8031
I01
sV117215
p8032
I01
sV42255
p8033
I01
sV198702
p8034
I01
sV42259
p8035
I01
sV166998
p8036
I01
sV166776
p8037
I01
sV227989
p8038
I01
sV16100
p8039
I01
sV70627
p8040
I01
sV2647
p8041
I01
sV55272
p8042
I01
sV101903
p8043
I01
sV195088
p8044
I01
sV258332
p8045
I01
sV219347
p8046
I01
sV255144
p8047
I01
sV219340
p8048
I01
sV176029
p8049
I01
sV176026
p8050
I01
sV176755
p8051
I01
sV247135
p8052
I01
sV246842
p8053
I01
sV184797
p8054
I01
sV96197
p8055
I01
sV62957
p8056
I01
sV227185
p8057
I01
sV113822
p8058
I01
sV159804
p8059
I01
sV107685
p8060
I01
sV102067
p8061
I01
sV226164
p8062
I01
sV223403
p8063
I01
sV125376
p8064
I01
sV254635
p8065
I01
sV68420
p8066
I01
sV157520
p8067
I01
sV255326
p8068
I01
sV197492
p8069
I01
sV217376
p8070
I01
sV45735
p8071
I01
sV204420
p8072
I01
sV95696
p8073
I01
sV204428
p8074
I01
sV202212
p8075
I01
sV44460
p8076
I01
sV133565
p8077
I01
sV83039
p8078
I01
sV243231
p8079
I01
sV711
p8080
I01
sV190116
p8081
I01
sV236964
p8082
I01
sV226295
p8083
I01
sV168730
p8084
I01
sV153937
p8085
I01
sV237567
p8086
I01
sV232046
p8087
I01
sV232516
p8088
I01
sV263819
p8089
I01
sV179760
p8090
I01
sV108285
p8091
I01
sV258987
p8092
I01
sV233644
p8093
I01
sV233646
p8094
I01
sV263424
p8095
I01
sV3143
p8096
I01
sV37821
p8097
I01
sV14595
p8098
I01
sV37827
p8099
I01
sV20217
p8100
I01
sV229112
p8101
I01
sV27531
p8102
I01
sV250068
p8103
I01
sV17860
p8104
I01
sV91753
p8105
I01
sV92555
p8106
I01
sV252671
p8107
I01
sV156695
p8108
I01
sV252679
p8109
I01
sV188276
p8110
I01
sV66817
p8111
I01
sV66815
p8112
I01
sV25621
p8113
I01
sV161654
p8114
I01
sV196819
p8115
I01
sV97976
p8116
I01
sV214935
p8117
I01
sV59070
p8118
I01
sV196452
p8119
I01
sV205976
p8120
I01
sV182076
p8121
I01
sV248528
p8122
I01
sV47161
p8123
I01
sV74999
p8124
I01
sV248526
p8125
I01
sV256550
p8126
I01
sV109620
p8127
I01
sV183483
p8128
I01
sV201181
p8129
I01
sV39228
p8130
I01
sV35977
p8131
I01
sV145474
p8132
I01
sV157434
p8133
I01
sV194917
p8134
I01
sV145479
p8135
I01
sV95901
p8136
I01
sV74198
p8137
I01
sV16534
p8138
I01
sV171836
p8139
I01
sV12623
p8140
I01
sV149966
p8141
I01
sV154036
p8142
I01
sV173690
p8143
I01
sV245189
p8144
I01
sV145655
p8145
I01
sV228797
p8146
I01
sV215516
p8147
I01
sV60941
p8148
I01
sV21020
p8149
I01
sV21021
p8150
I01
sV187813
p8151
I01
sV32190
p8152
I01
sV187814
p8153
I01
sV61897
p8154
I01
sV124817
p8155
I01
sV257206
p8156
I01
sV257976
p8157
I01
sV119413
p8158
I01
sV201464
p8159
I01
sV43932
p8160
I01
sV25494
p8161
I01
sV25492
p8162
I01
sV43937
p8163
I01
sV205743
p8164
I01
sV205748
p8165
I01
sV49641
p8166
I01
sV200514
p8167
I01
sV200515
p8168
I01
sV21971
p8169
I01
sV46610
p8170
I01
sV184891
p8171
I01
sV261395
p8172
I01
sV17667
p8173
I01
sV141089
p8174
I01
sV99817
p8175
I01
sV197047
p8176
I01
sV172129
p8177
I01
sV4916
p8178
I01
sV4665
p8179
I01
sV81096
p8180
I01
sV81092
p8181
I01
sV235081
p8182
I01
sV75997
p8183
I01
sV191099
p8184
I01
sV96769
p8185
I01
sV53107
p8186
I01
sV97416
p8187
I01
sV5177
p8188
I01
sV105670
p8189
I01
sV58132
p8190
I01
sV215078
p8191
I01
sV54455
p8192
I01
sV124767
p8193
I01
sV138493
p8194
I01
sV124763
p8195
I01
sV116089
p8196
I01
sV164840
p8197
I01
sV141884
p8198
I01
sV124769
p8199
I01
sV237773
p8200
I01
sV102902
p8201
I01
sV186367
p8202
I01
sV186365
p8203
I01
sV121192
p8204
I01
sV128312
p8205
I01
sV125146
p8206
I01
sV113101
p8207
I01
sV9682
p8208
I01
sV9685
p8209
I01
sV251691
p8210
I01
sV62721
p8211
I01
sV246183
p8212
I01
sV237485
p8213
I01
sV243001
p8214
I01
sV148770
p8215
I01
sV260040
p8216
I01
sV248065
p8217
I01
sV7258
p8218
I01
sV260047
p8219
I01
sV83820
p8220
I01
sV206554
p8221
I01
sV41545
p8222
I01
sV264817
p8223
I01
sV169655
p8224
I01
sV84442
p8225
I01
sV186799
p8226
I01
sV123590
p8227
I01
sV111882
p8228
I01
sV171222
p8229
I01
sV63232
p8230
I01
sV29335
p8231
I01
sV14291
p8232
I01
sV176922
p8233
I01
sV78432
p8234
I01
sV78435
p8235
I01
sV232706
p8236
I01
sV109368
p8237
I01
sV144687
p8238
I01
sV103468
p8239
I01
sV179959
p8240
I01
sV8203
p8241
I01
sV123774
p8242
I01
sV206323
p8243
I01
sV159612
p8244
I01
sV95688
p8245
I01
sV233258
p8246
I01
sV149420
p8247
I01
sV149425
p8248
I01
sV255462
p8249
I01
sV142309
p8250
I01
sV212067
p8251
I01
sV37127
p8252
I01
sV37122
p8253
I01
sV131717
p8254
I01
sV143307
p8255
I01
sV34691
p8256
I01
sV40510
p8257
I01
sV40517
p8258
I01
sV67802
p8259
I01
sV108143
p8260
I01
sV199512
p8261
I01
sV219569
p8262
I01
sV93964
p8263
I01
sV207634
p8264
I01
sV136090
p8265
I01
sV207632
p8266
I01
sV170173
p8267
I01
sV659
p8268
I01
sV206857
p8269
I01
sV176278
p8270
I01
sV131820
p8271
I01
sV263898
p8272
I01
sV263891
p8273
I01
sV13802
p8274
I01
sV165152
p8275
I01
sV3888
p8276
I01
sV165402
p8277
I01
sV197231
p8278
I01
sV234700
p8279
I01
sV72355
p8280
I01
sV225821
p8281
I01
sV79479
p8282
I01
sV207451
p8283
I01
sV193479
p8284
I01
sV224086
p8285
I01
sV233639
p8286
I01
sV100292
p8287
I01
sV230752
p8288
I01
sV114018
p8289
I01
sV145226
p8290
I01
sV130443
p8291
I01
sV220741
p8292
I01
sV220740
p8293
I01
sV229914
p8294
I01
sV32695
p8295
I01
sV101217
p8296
I01
sV118614
p8297
I01
sV213557
p8298
I01
sV241874
p8299
I01
sV213002
p8300
I01
sV241659
p8301
I01
sV43892
p8302
I01
sV215893
p8303
I01
sV260540
p8304
I01
sV25008
p8305
I01
sV141902
p8306
I01
sV259396
p8307
I01
sV224604
p8308
I01
sV253220
p8309
I01
sV140766
p8310
I01
sV78988
p8311
I01
sV166175
p8312
I01
sV166170
p8313
I01
sV17760
p8314
I01
sV199188
p8315
I01
sV215094
p8316
I01
sV198857
p8317
I01
sV19956
p8318
I01
sV85099
p8319
I01
sV74386
p8320
I01
sV223051
p8321
I01
sV139379
p8322
I01
sV259023
p8323
I01
sV259025
p8324
I01
sV205354
p8325
I01
sV139373
p8326
I01
sV180055
p8327
I01
sV42275
p8328
I01
sV166719
p8329
I01
sV119277
p8330
I01
sV166714
p8331
I01
sV57457
p8332
I01
sV191660
p8333
I01
sV9274
p8334
I01
sV9279
p8335
I01
sV189679
p8336
I01
sV163383
p8337
I01
sV224520
p8338
I01
sV125682
p8339
I01
sV101966
p8340
I01
sV255126
p8341
I01
sV219362
p8342
I01
sV64385
p8343
I01
sV26007
p8344
I01
sV45137
p8345
I01
sV203989
p8346
I01
sV125426
p8347
I01
sV159860
p8348
I01
sV152157
p8349
I01
sV113378
p8350
I01
sV44263
p8351
I01
sV127045
p8352
I01
sV158734
p8353
I01
sV157500
p8354
I01
sV68402
p8355
I01
sV22850
p8356
I01
sV199454
p8357
I01
sV4496
p8358
I01
sV204402
p8359
I01
sV162125
p8360
I01
sV192403
p8361
I01
sV203185
p8362
I01
sV243754
p8363
I01
sV108777
p8364
I01
sV198322
p8365
I01
sV133503
p8366
I01
sV202760
p8367
I01
sV236940
p8368
I01
sV190131
p8369
I01
sV58271
p8370
I01
sV190133
p8371
I01
sV217938
p8372
I01
sV170078
p8373
I01
sV76608
p8374
I01
sV172928
p8375
I01
sV237549
p8376
I01
sV102044
p8377
I01
sV102739
p8378
I01
sV18054
p8379
I01
sV258965
p8380
I01
sV233626
p8381
I01
sV178124
p8382
I01
sV122365
p8383
I01
sV234935
p8384
I01
sV54150
p8385
I01
sV33871
p8386
I01
sV183202
p8387
I01
sV94529
p8388
I01
sV183201
p8389
I01
sV48329
p8390
I01
sV27515
p8391
I01
sV225454
p8392
I01
sV27510
p8393
I01
sV83673
p8394
I01
sV83675
p8395
I01
sV83678
p8396
I01
sV163168
p8397
I01
sV118448
p8398
I01
sV242163
p8399
I01
sV118444
p8400
I01
sV66295
p8401
I01
sV188257
p8402
I01
sV66834
p8403
I01
sV66835
p8404
I01
sV45242
p8405
I01
sV173070
p8406
I01
sV245744
p8407
I01
sV193114
p8408
I01
sV59052
p8409
I01
sV193110
p8410
I01
sV29162
p8411
I01
sV31256
p8412
I01
sV216225
p8413
I01
sV41896
p8414
I01
sV217798
p8415
I01
sV47188
p8416
I01
sV126443
p8417
I01
sV74975
p8418
I01
sV231715
p8419
I01
sV15262
p8420
I01
sV231712
p8421
I01
sV109608
p8422
I01
sV27183
p8423
I01
sV194935
p8424
I01
sV105809
p8425
I01
sV206460
p8426
I01
sV105805
p8427
I01
sV50383
p8428
I01
sV174331
p8429
I01
sV35950
p8430
I01
sV50389
p8431
I01
sV224270
p8432
I01
sV221353
p8433
I01
sV206043
p8434
I01
sV55356
p8435
I01
sV170438
p8436
I01
sV117048
p8437
I01
sV16044
p8438
I01
sV16513
p8439
I01
sV103958
p8440
I01
sV202450
p8441
I01
sV127868
p8442
I01
sV22691
p8443
I01
sV62685
p8444
I01
sV255904
p8445
I01
sV189127
p8446
I01
sV256093
p8447
I01
sV196063
p8448
I01
sV154882
p8449
I01
sV60963
p8450
I01
sV52873
p8451
I01
sV56551
p8452
I01
sV154739
p8453
I01
sV52874
p8454
I01
sV218917
p8455
I01
sV151544
p8456
I01
sV24722
p8457
I01
sV110929
p8458
I01
sV48880
p8459
I01
sV61215
p8460
I01
sV82697
p8461
I01
sV65242
p8462
I01
sV19547
p8463
I01
sV82698
p8464
I01
sV141318
p8465
I01
sV241465
p8466
I01
sV261002
p8467
I01
sV220322
p8468
I01
sV190205
p8469
I01
sV31922
p8470
I01
sV2329
p8471
I01
sV69380
p8472
I01
sV201443
p8473
I01
sV201113
p8474
I01
sV109832
p8475
I01
sV3767
p8476
I01
sV98958
p8477
I01
sV100975
p8478
I01
sV100977
p8479
I01
sV63085
p8480
I01
sV116310
p8481
I01
sV162469
p8482
I01
sV43665
p8483
I01
sV199663
p8484
I01
sV183993
p8485
I01
sV13550
p8486
I01
sV199667
p8487
I01
sV167630
p8488
I01
sV60295
p8489
I01
sV221988
p8490
I01
sV57608
p8491
I01
sV118624
p8492
I01
sV93336
p8493
I01
sV96784
p8494
I01
sV76418
p8495
I01
sV227025
p8496
I01
sV227026
p8497
I01
sV237712
p8498
I01
sV60743
p8499
I01
sV186340
p8500
I01
sV64044
p8501
I01
sV120848
p8502
I01
sV116444
p8503
I01
sV113167
p8504
I01
sV90042
p8505
I01
sV36323
p8506
I01
sV49115
p8507
I01
sV135733
p8508
I01
sV47197
p8509
I01
sV140408
p8510
I01
sV45677
p8511
I01
sV48575
p8512
I01
sV142864
p8513
I01
sV260060
p8514
I01
sV44672
p8515
I01
sV193652
p8516
I01
sV95494
p8517
I01
sV243022
p8518
I01
sV194335
p8519
I01
sV139031
p8520
I01
sV54433
p8521
I01
sV176490
p8522
I01
sV15720
p8523
I01
sV264295
p8524
I01
sV264291
p8525
I01
sV113786
p8526
I01
sV113789
p8527
I01
sV187437
p8528
I01
sV233015
p8529
I01
sV95143
p8530
I01
sV178330
p8531
I01
sV72737
p8532
I01
sV223858
p8533
I01
sV112562
p8534
I01
sV33668
p8535
I01
sV147317
p8536
I01
sV33661
p8537
I01
sV115789
p8538
I01
sV52328
p8539
I01
sV44096
p8540
I01
sV133196
p8541
I01
sV251812
p8542
I01
sV146806
p8543
I01
sV257420
p8544
I01
sV123715
p8545
I01
sV187750
p8546
I01
sV187754
p8547
I01
sV158945
p8548
I01
sV258233
p8549
I01
sV212471
p8550
I01
sV142495
p8551
I01
sV17441
p8552
I01
sV183431
p8553
I01
sV131735
p8554
I01
sV178848
p8555
I01
sV40573
p8556
I01
sV133996
p8557
I01
sV44893
p8558
I01
sV93862
p8559
I01
sV76141
p8560
I01
sV76144
p8561
I01
sV76147
p8562
I01
sV245353
p8563
I01
sV170153
p8564
I01
sV170154
p8565
I01
sV239713
p8566
I01
sV116678
p8567
I01
sV239054
p8568
I01
sV77549
p8569
I01
sV224240
p8570
I01
sV35098
p8571
I01
sV223974
p8572
I01
sV66992
p8573
I01
sV232870
p8574
I01
sV238406
p8575
I01
sV207475
p8576
I01
sV170330
p8577
I01
sV118585
p8578
I01
sV88973
p8579
I01
sV222817
p8580
I01
sV8485
p8581
I01
sV245350
p8582
I01
sV103727
p8583
I01
sV234095
p8584
I01
stb.