(lp1
F1.6923076923076923
aF1.7142857142857142
aF2.125
aF2.2000000000000002
aF2.3199999999999998
aF2.5517241379310347
aF3.2142857142857144
aF2.9743589743589745
aF3
aF3.2142857142857144
aF2.8214285714285716
aF2.7826086956521738
aF2.3846153846153846
aF2.7647058823529411
aF2.625
aF1.8181818181818181
aF2.25
aF2.25
aF2.1666666666666665
aF2
aF1.8333333333333333
aF1.6666666666666667
aF2.3333333333333335
aF2
aF1.5
aF1.5
aF1.3333333333333333
aF1.5
aF1.25
aF1.5
aF1
aF1.3333333333333333
aF1
aF1.2
aF1
aF1
aF1
aF1
aF1
aF1
aF1.3333333333333333
aI0
aF1
aI0
aF1
aF1.3333333333333333
aF1.3333333333333333
aF1.5
aF1
aF2
aF1
aI0
aI0
aF1
aF2
aF1
aF1
aF1
aF1
aI0
aI0
aF1
aF1
aF1
aI0
aI0
aF1
aF1
aF1
aF1
aI0
aI0
aI0
aF1
aF1
aF1
aI0
aF1
aF1
aI0
aI0
aF1
aF1
aF2
aF1
aF1
aF1
aF1
aI0
aF1
aF1
aI0
aF1
aF1
aF1
aF1
aF1
aI0
aF1
aI0
a.