(lp1
F0.012999999999999999
aF0.014
aF0.0080000000000000002
aF0.014999999999999999
aF0.025000000000000001
aF0.029000000000000001
aF0.028000000000000001
aF0.039
aF0.029000000000000001
aF0.042000000000000003
aF0.028000000000000001
aF0.023
aF0.025999999999999999
aF0.017000000000000001
aF0.016
aF0.010999999999999999
aF0.012
aF0.016
aF0.0060000000000000001
aF0.012999999999999999
aF0.0060000000000000001
aF0.0089999999999999993
aF0.0030000000000000001
aF0.0060000000000000001
aF0.0040000000000000001
aF0.0060000000000000001
aF0.0060000000000000001
aF0.0060000000000000001
aF0.0040000000000000001
aF0.002
aF0.0030000000000000001
aF0.0030000000000000001
aF0.0030000000000000001
aF0.0050000000000000001
aF0.002
aF0.001
aF0.002
aF0.0030000000000000001
aF0.0030000000000000001
aF0.001
aF0.0030000000000000001
aF0
aF0.0040000000000000001
aF0
aF0.002
aF0.0030000000000000001
aF0.0030000000000000001
aF0.002
aF0.001
aF0.001
aF0.001
aF0
aF0
aF0.001
aF0.001
aF0.002
aF0.001
aF0.001
aF0.001
aF0
aF0
aF0.0030000000000000001
aF0.001
aF0.001
aF0
aF0
aF0.001
aF0.0030000000000000001
aF0.002
aF0.001
aF0
aF0
aF0
aF0.001
aF0.002
aF0.002
aF0
aF0.001
aF0.001
aF0
aF0
aF0.001
aF0.0030000000000000001
aF0.001
aF0.002
aF0.001
aF0.001
aF0.002
aF0
aF0.0040000000000000001
aF0.0030000000000000001
aF0
aF0.001
aF0.002
aF0.002
aF0.001
aF0.0030000000000000001
aF0
aF0.001
aF0
a.