(dp1
(I50
I96
tp2
F303.68383636981423
s(I551
I719
tp3
F110.53775824130791
s(I59
I274
tp4
F278.45676578699744
s(I556
I940
tp5
F276.94618334964628
s(I134
I350
tp6
F191.55867250289432
s(I28
I980
tp7
F931.00874245267858
s(I88
I258
tp8
F353.08802420591775
s(I14
I79
tp9
F291.48850361722782
s(I0
I489
tp10
F823.73986373789444
s(I509
I548
tp11
F220.91537125809225
s(I148
I612
tp12
F349.73148257184505
s(I19
I852
tp13
F648.7937637402008
s(I114
I545
tp14
F339.17120562186346
s(I116
I781
tp15
F221.01759447571473
s(I25
I701
tp16
F681.08935043824704
s(I63
I774
tp17
F287.31971324906294
s(I65
I419
tp18
F3616.6501085824689
s(I11
I740
tp19
F1293.0196600631609
s(I69
I491
tp20
F280.19805723580112
s(I159
I499
tp21
F1700.6023204937435
s(I27
I661
tp22
F387.93694408478274
s(I110
I359
tp23
F387.74255420663377
s(I93
I501
tp24
F846.78207855693881
s(I539
I656
tp25
F176.04320516085215
s(I41
I47
tp26
F423.90577288093164
s(I45
I61
tp27
F509.7825530885151
s(I13
I585
tp28
F811.91907238862734
s(I13
I20
tp29
F4659.1052305936619
s(I89
I545
tp30
F454.55598239479826
s(I99
I530
tp31
F303.86124970717151
s(I534
I692
tp32
F298.85826059194414
s(I3
I473
tp33
F711.27147700032424
s(I297
I353
tp34
F288.73666232167375
s(I8
I87
tp35
F10310.457130283085
s(I26
I511
tp36
F1450.1218890426178
s(I214
I368
tp37
F247.30359481436403
s(I268
I724
tp38
F533.99277686865537
s(I189
I249
tp39
F1399.824106727423
s(I9
I184
tp40
F618.4846916985714
s(I245
I451
tp41
F2235.9541210725156
s(I9
I266
tp42
F1687.16964457158
s(I69
I579
tp43
F7729.2165355614889
s(I676
I839
tp44
F145.77893713801149
s(I199
I373
tp45
F409.88900817715262
s(I93
I289
tp46
F851.47172053678116
s(I9
I187
tp47
F517.44319399606832
s(I8
I352
tp48
F1678.9118010055452
s(I13
I753
tp49
F931.68574790096363
s(I13
I188
tp50
F7889.3136400673538
s(I125
I194
tp51
F198.42122710578505
s(I126
I208
tp52
F1238.503985074123
s(I453
I945
tp53
F2753.5766128269997
s(I38
I140
tp54
F672.57590297187187
s(I41
I179
tp55
F393.46099980240098
s(I42
I67
tp56
F739.55591021039584
s(I25
I393
tp57
F457.76720503389669
s(I10
I104
tp58
F567.18150023786166
s(I28
I351
tp59
F1037.0706429062411
s(I11
I305
tp60
F825.81959291835335
s(I19
I209
tp61
F838.80015428668446
s(I113
I222
tp62
F945.6305613889275
s(I4
I590
tp63
F4226.0235255917351
s(I8
I94
tp64
F1011.6977122379973
s(I293
I319
tp65
F154.38885371142095
s(I104
I541
tp66
F271.17285931914699
s(I232
I594
tp67
F477.55429857045448
s(I31
I500
tp68
F484.69306757387267
s(I1
I33
tp69
F623.61060876746717
s(I384
I796
tp70
F87.044255091600419
s(I206
I433
tp71
F561.81226354354044
s(I157
I591
tp72
F196.01956466533372
s(I306
I644
tp73
F418.38249121326822
s(I199
I516
tp74
F813.65610756497608
s(I755
I975
tp75
F169.3118327024861
s(I370
I646
tp76
F564.99376587175288
s(I4
I185
tp77
F1530.6150919391125
s(I190
I372
tp78
F542.21813100165605
s(I173
I542
tp79
F165.8210879754875
s(I275
I396
tp80
F6501.6257526680765
s(I11
I217
tp81
F965.78866124716285
s(I12
I41
tp82
F1580.6665995252433
s(I782
I968
tp83
F177.95971738561366
s(I53
I217
tp84
F261.28495766661018
s(I53
I660
tp85
F716.22854307299292
s(I19
I105
tp86
F456.68194302748316
s(I292
I777
tp87
F215.90920279697366
s(I179
I767
tp88
F158.20721835764087
s(I45
I47
tp89
F285.91813052214616
s(I9
I598
tp90
F388.35085066612635
s(I84
I254
tp91
F632.79760445000329
s(I11
I310
tp92
F1353.7607847220258
s(I86
I147
tp93
F106.44012423142613
s(I144
I758
tp94
F312.84266236641218
s(I15
I294
tp95
F3535.766530687451
s(I482
I518
tp96
F942.02654848839575
s(I0
I5
tp97
F4139.9162643455666
s(I113
I652
tp98
F649.8746069927488
s(I4
I479
tp99
F4040.3149919096968
s(I498
I523
tp100
F549.83073115632135
s(I211
I245
tp101
F2526.5683970616069
s(I6
I893
tp102
F674.67671635656336
s(I66
I688
tp103
F557.53980727954297
s(I12
I271
tp104
F567.98457599027779
s(I696
I765
tp105
F710.68807039383682
s(I90
I148
tp106
F202.77314517365224
s(I182
I566
tp107
F359.0298735351837
s(I1
I58
tp108
F3100.2288648016151
s(I130
I859
tp109
F625.40174852581174
s(I3
I129
tp110
F3850.6574489624286
s(I132
I401
tp111
F184.05046973911067
s(I105
I712
tp112
F355.67492345265993
s(I280
I420
tp113
F170.4376513474709
s(I212
I935
tp114
F1351.9375999382235
s(I11
I65
tp115
F4851.2278288682164
s(I8
I726
tp116
F655.69389556064061
s(I89
I578
tp117
F788.54670443284613
s(I329
I837
tp118
F302.60899789208617
s(I0
I803
tp119
F445.64805596848782
s(I9
I59
tp120
F2031.4166053703673
s(I7
I608
tp121
F913.0489334102889
s(I232
I375
tp122
F418.86652535064496
s(I177
I231
tp123
F149.64347623684893
s(I178
I312
tp124
F239.6412316555103
s(I17
I736
tp125
F721.79502544123625
s(I13
I531
tp126
F924.6288713096983
s(I182
I751
tp127
F628.88314228956619
s(I20
I555
tp128
F1158.6196022227059
s(I20
I96
tp129
F1100.7110318583739
s(I42
I760
tp130
F564.60379848704815
s(I4
I311
tp131
F1240.3779679260845
s(I7
I351
tp132
F1094.25262878076
s(I10
I26
tp133
F1388.5529577598029
s(I28
I794
tp134
F504.4768800357308
s(I13
I628
tp135
F668.60830660838064
s(I31
I85
tp136
F1983.0396520746849
s(I14
I183
tp137
F415.9678761185462
s(I24
I32
tp138
F2272.5373495602071
s(I1
I735
tp139
F794.80118273348353
s(I164
I189
tp140
F235.83497769672903
s(I3
I460
tp141
F453.05565596127485
s(I66
I105
tp142
F518.59912641362246
s(I5
I464
tp143
F1110.1428774988794
s(I65
I570
tp144
F635.82676811626686
s(I11
I546
tp145
F658.20939482623032
s(I144
I193
tp146
F298.35274566254486
s(I57
I513
tp147
F180.71726564444052
s(I4
I24
tp148
F1161.6887302066448
s(I116
I687
tp149
F205.56055141275598
s(I126
I378
tp150
F741.32823520279203
s(I13
I460
tp151
F403.94355847210755
s(I7
I146
tp152
F1912.0059931824042
s(I65
I399
tp153
F679.15580496413463
s(I46
I588
tp154
F395.09889753368191
s(I13
I540
tp155
F11119.773378136659
s(I103
I549
tp156
F551.98842423181316
s(I9
I722
tp157
F792.30294352738872
s(I2
I4
tp158
F2313.3971966541167
s(I20
I420
tp159
F745.39823515859371
s(I14
I227
tp160
F466.75745536782756
s(I83
I808
tp161
F491.36747334002229
s(I134
I612
tp162
F410.26833930649701
s(I5
I167
tp163
F851.01919221361732
s(I452
I498
tp164
F433.12753793934462
s(I58
I476
tp165
F1282.5340990188954
s(I3
I904
tp166
F898.3367651602224
s(I5
I473
tp167
F853.39319866019605
s(I120
I141
tp168
F677.88116469646468
s(I215
I224
tp169
F120.50626590153529
s(I2
I491
tp170
F383.92499626843602
s(I7
I553
tp171
F2004.6568344069071
s(I175
I190
tp172
F577.54185733285669
s(I57
I87
tp173
F3373.6660203183455
s(I4
I7
tp174
F3469.4789390691167
s(I93
I288
tp175
F1079.8671086541474
s(I5
I805
tp176
F905.6672400622092
s(I616
I716
tp177
F584.82397565286954
s(I28
I586
tp178
F1277.1086418024888
s(I195
I234
tp179
F274.50531158187079
s(I178
I347
tp180
F435.28672207176425
s(I507
I934
tp181
F116.69891987209678
s(I127
I369
tp182
F350.33113165042835
s(I219
I240
tp183
F202.99271210169326
s(I772
I890
tp184
F3688.0966824830325
s(I96
I416
tp185
F353.66834000342169
s(I793
I846
tp186
F221.7342233364385
s(I215
I514
tp187
F172.18001548820968
s(I28
I410
tp188
F435.63648891731799
s(I135
I700
tp189
F208.40264345505145
s(I275
I914
tp190
F469.89508962762659
s(I173
I212
tp191
F3162.1999174070097
s(I124
I307
tp192
F5079.1910151246675
s(I72
I962
tp193
F309.1325426724581
s(I24
I168
tp194
F436.26548958073136
s(I0
I123
tp195
F2871.4729702257914
s(I805
I927
tp196
F290.40059471638415
s(I70
I317
tp197
F487.73634890034845
s(I46
I108
tp198
F382.57260534428349
s(I7
I16
tp199
F1698.0599719165787
s(I962
I990
tp200
F238.38536527675541
s(I742
I895
tp201
F2941.4938016755668
s(I10
I12
tp202
F2487.3834476399898
s(I672
I972
tp203
F305.09880635732026
s(I12
I165
tp204
F611.4757577308385
s(I17
I792
tp205
F739.9639310412623
s(I34
I579
tp206
F7724.0801737629135
s(I698
I836
tp207
F228.5372719145459
s(I36
I291
tp208
F432.54542377210134
s(I19
I237
tp209
F725.78264249358563
s(I351
I543
tp210
F240.43984611344803
s(I10
I777
tp211
F647.88012683085174
s(I28
I101
tp212
F2190.6864438472603
s(I20
I468
tp213
F1383.4410579757971
s(I569
I977
tp214
F169.19028244444019
s(I401
I967
tp215
F132.41900026148679
s(I471
I875
tp216
F458.98698852047158
s(I93
I244
tp217
F5564.2000750321286
s(I4
I14
tp218
F1572.9013412614568
s(I80
I87
tp219
F3041.4659554098184
s(I25
I135
tp220
F585.10077697368069
s(I26
I63
tp221
F382.97933281302102
s(I31
I727
tp222
F294.42983029633456
s(I124
I128
tp223
F630.95415826940689
s(I107
I527
tp224
F311.8415566070031
s(I236
I732
tp225
F1191.4266823461885
s(I183
I568
tp226
F161.60742647875003
s(I274
I961
tp227
F249.45493835916113
s(I21
I693
tp228
F668.24602833885945
s(I222
I923
tp229
F393.74580456828886
s(I150
I212
tp230
F1989.8259980879936
s(I99
I322
tp231
F208.57473585231131
s(I20
I68
tp232
F1207.482657676486
s(I250
I576
tp233
F368.01547554942454
s(I185
I186
tp234
F322.66864882570957
s(I25
I110
tp235
F1257.6732621512726
s(I68
I683
tp236
F803.57580826080357
s(I28
I442
tp237
F799.6643665758794
s(I86
I778
tp238
F315.94913932373788
s(I17
I785
tp239
F625.37218764535737
s(I179
I830
tp240
F281.05921684117226
s(I124
I942
tp241
F403.4537401653501
s(I330
I614
tp242
F180.29813465556276
s(I4
I102
tp243
F1447.3630272234034
s(I41
I756
tp244
F468.54080185862551
s(I81
I967
tp245
F183.08109302648757
s(I118
I332
tp246
F450.24743194030611
s(I28
I124
tp247
F3007.7784238144268
s(I11
I28
tp248
F3646.8921544164104
s(I28
I918
tp249
F737.15727743020796
s(I13
I443
tp250
F1061.882085934302
s(I1
I6
tp251
F4788.1856734390876
s(I25
I533
tp252
F563.48234200546858
s(I8
I870
tp253
F793.91491024724655
s(I6
I785
tp254
F726.794246784047
s(I5
I791
tp255
F684.36772024532581
s(I9
I198
tp256
F2536.0266308845598
s(I300
I502
tp257
F334.59738717912137
s(I13
I268
tp258
F1107.0440743644897
s(I161
I387
tp259
F429.83809369386853
s(I1
I460
tp260
F444.47427452585646
s(I257
I695
tp261
F377.98550214763441
s(I20
I917
tp262
F1063.9786355542301
s(I203
I351
tp263
F146.0663664225531
s(I354
I875
tp264
F291.58320687281275
s(I25
I825
tp265
F1064.7785569819507
s(I227
I457
tp266
F213.24729732353683
s(I24
I57
tp267
F658.34894276653165
s(I472
I721
tp268
F132.84838521667999
s(I85
I292
tp269
F582.18918143724591
s(I641
I668
tp270
F4953.0359092379513
s(I76
I791
tp271
F1148.684665559073
s(I886
I958
tp272
F4263.0186138348545
s(I11
I331
tp273
F1439.116625847849
s(I33
I503
tp274
F225.16439312163658
s(I531
I624
tp275
F192.17510389787012
s(I45
I314
tp276
F495.62256387120414
s(I289
I400
tp277
F491.45929764389251
s(I329
I579
tp278
F4356.9316326916341
s(I364
I377
tp279
F172.7969785231395
s(I43
I874
tp280
F761.78623622501618
s(I112
I695
tp281
F349.94155332971116
s(I9
I382
tp282
F1180.8374083213366
s(I47
I260
tp283
F193.12514216215172
s(I583
I779
tp284
F1114.9941518945204
s(I16
I472
tp285
F531.17014420069256
s(I90
I115
tp286
F270.0821312903397
s(I1
I31
tp287
F4354.5291210358428
s(I40
I494
tp288
F303.68134792906926
s(I41
I955
tp289
F840.18031831523376
s(I49
I700
tp290
F370.03934599471609
s(I227
I484
tp291
F637.01275094135019
s(I486
I959
tp292
F221.33135899701227
s(I55
I142
tp293
F190.94201399143449
s(I3
I710
tp294
F1293.7715969640283
s(I5
I27
tp295
F1082.2056652093167
s(I6
I155
tp296
F2747.2286798008095
s(I9
I88
tp297
F978.18991378011344
s(I118
I554
tp298
F544.31298508333839
s(I12
I195
tp299
F1371.5772278108839
s(I462
I704
tp300
F7526.5227983208479
s(I382
I954
tp301
F87.509648867223348
s(I185
I529
tp302
F224.81899103831563
s(I287
I536
tp303
F398.14509886520369
s(I3
I855
tp304
F11460.866744496841
s(I45
I698
tp305
F332.97924221665482
s(I11
I320
tp306
F946.15499175820673
s(I13
I913
tp307
F13993.685335887913
s(I33
I392
tp308
F469.83794911536739
s(I70
I578
tp309
F761.82266462062614
s(I586
I827
tp310
F206.42228908164768
s(I218
I810
tp311
F501.57041176975298
s(I274
I447
tp312
F102.98633921093966
s(I20
I242
tp313
F1004.4208098187654
s(I39
I182
tp314
F868.13024431928875
s(I22
I234
tp315
F844.9349482577818
s(I196
I479
tp316
F693.4604923124441
s(I10
I383
tp317
F597.92713244171489
s(I29
I124
tp318
F2123.9464959377747
s(I9
I788
tp319
F846.83213940395478
s(I3
I95
tp320
F3187.4643041239265
s(I390
I887
tp321
F128.19376539653433
s(I24
I338
tp322
F846.64200475674079
s(I38
I447
tp323
F312.16660806485902
s(I21
I93
tp324
F2889.6300555890816
s(I533
I653
tp325
F167.50886008299486
s(I25
I717
tp326
F803.90774350268975
s(I102
I856
tp327
F99.643459309618976
s(I837
I854
tp328
F1995.1747513936709
s(I252
I474
tp329
F316.3181460077426
s(I289
I320
tp330
F174.64898555595869
s(I199
I317
tp331
F323.13117986030301
s(I359
I582
tp332
F223.91820365575765
s(I42
I575
tp333
F5553.7056276285894
s(I4
I138
tp334
F566.89166368244355
s(I42
I102
tp335
F885.96746421142075
s(I544
I789
tp336
F198.03387185569841
s(I11
I805
tp337
F674.40788066582184
s(I32
I851
tp338
F633.51202165750294
s(I14
I295
tp339
F3808.975516096838
s(I239
I459
tp340
F251.94084985289206
s(I76
I276
tp341
F1350.3498023304562
s(I148
I466
tp342
F368.91018796306048
s(I504
I811
tp343
F106.13734567275269
s(I286
I679
tp344
F280.91170582125443
s(I267
I979
tp345
F246.33149540161733
s(I52
I411
tp346
F508.8384672025245
s(I72
I164
tp347
F230.15899099385322
s(I17
I146
tp348
F1914.0367549047019
s(I237
I428
tp349
F373.7416721254047
s(I3
I67
tp350
F1044.0315501017867
s(I4
I83
tp351
F946.71513719659004
s(I26
I224
tp352
F373.31312616779024
s(I66
I331
tp353
F877.63153888671729
s(I52
I839
tp354
F451.52323135896995
s(I200
I541
tp355
F191.43352891607404
s(I19
I374
tp356
F641.19227714506201
s(I19
I135
tp357
F799.45893919666548
s(I78
I919
tp358
F368.17554273813249
s(I160
I694
tp359
F207.43235361130098
s(I2
I8
tp360
F2677.0509827585588
s(I61
I387
tp361
F414.18729054353958
s(I276
I577
tp362
F309.37287166850251
s(I5
I13
tp363
F7816.6908205555319
s(I9
I439
tp364
F851.18595111987872
s(I9
I74
tp365
F2204.6078025887273
s(I279
I332
tp366
F778.71422564424461
s(I217
I593
tp367
F166.91042952705644
s(I126
I542
tp368
F730.53374995287845
s(I464
I526
tp369
F209.75716047501896
s(I4
I856
tp370
F540.8976864160046
s(I182
I732
tp371
F674.05988405636981
s(I297
I742
tp372
F3747.2552265077265
s(I75
I505
tp373
F290.24188725515205
s(I497
I868
tp374
F147.42108218578807
s(I24
I84
tp375
F482.35227481347101
s(I522
I776
tp376
F144.0547252455147
s(I9
I256
tp377
F734.35050417949981
s(I10
I414
tp378
F630.67717470493085
s(I9
I622
tp379
F823.28415136461069
s(I47
I418
tp380
F149.92002755795897
s(I10
I53
tp381
F602.84023256631735
s(I115
I207
tp382
F1210.508636359571
s(I242
I509
tp383
F215.60547556036275
s(I133
I943
tp384
F255.993584731868
s(I46
I238
tp385
F426.58128528671841
s(I66
I783
tp386
F483.06097903324786
s(I433
I528
tp387
F291.61077411280809
s(I7
I53
tp388
F817.22621089307472
s(I74
I223
tp389
F408.26729147136246
s(I41
I475
tp390
F429.57679986603364
s(I9
I226
tp391
F834.30141458787239
s(I221
I426
tp392
F475.46811415854006
s(I13
I730
tp393
F523.1120422289024
s(I31
I346
tp394
F536.09675506777739
s(I3
I11
tp395
F4797.2334530006374
s(I398
I993
tp396
F565.97923001033132
s(I419
I444
tp397
F969.25151858472191
s(I42
I122
tp398
F3385.4385528508737
s(I136
I251
tp399
F285.42867260755764
s(I248
I608
tp400
F154.6812973371164
s(I231
I297
tp401
F226.38847930875991
s(I144
I304
tp402
F967.95340630267265
s(I169
I916
tp403
F545.91657005281354
s(I93
I346
tp404
F655.4782732590545
s(I480
I504
tp405
F182.45893721687315
s(I133
I210
tp406
F196.87261056684017
s(I27
I371
tp407
F301.56815386345176
s(I156
I706
tp408
F1195.9318157829134
s(I123
I490
tp409
F571.28172233571877
s(I56
I184
tp410
F182.95748078293084
s(I90
I619
tp411
F296.50649157901825
s(I504
I685
tp412
F191.11914741283155
s(I367
I751
tp413
F402.7561607620874
s(I6
I869
tp414
F17451.407060810056
s(I55
I335
tp415
F249.75344818394188
s(I11
I618
tp416
F756.30587576022856
s(I391
I917
tp417
F227.50344324105978
s(I32
I154
tp418
F626.98943778063676
s(I363
I773
tp419
F177.56287693787692
s(I550
I842
tp420
F231.66385787721939
s(I22
I459
tp421
F752.28398350381508
s(I5
I884
tp422
F978.85452406952493
s(I64
I464
tp423
F293.31952307604621
s(I245
I970
tp424
F1190.2908974806348
s(I29
I653
tp425
F587.76719034451799
s(I12
I16
tp426
F1897.0775916104367
s(I12
I605
tp427
F10864.240792976683
s(I92
I497
tp428
F219.6227796831925
s(I14
I393
tp429
F415.19268356609427
s(I489
I979
tp430
F380.02026592059042
s(I537
I936
tp431
F301.74659579550877
s(I2
I465
tp432
F5783.2200408280942
s(I20
I493
tp433
F680.74620193071098
s(I10
I996
tp434
F781.73910275681953
s(I296
I542
tp435
F214.72800901606007
s(I193
I314
tp436
F205.84262827431093
s(I34
I84
tp437
F627.13626499277552
s(I236
I581
tp438
F746.96514107000814
s(I20
I855
tp439
F5241.8780687422222
s(I130
I269
tp440
F1132.1496398768411
s(I3
I41
tp441
F3087.3785189965301
s(I3
I508
tp442
F820.42588465286633
s(I43
I142
tp443
F427.67248477651316
s(I48
I211
tp444
F396.03090374505007
s(I32
I34
tp445
F1712.0236949307071
s(I234
I968
tp446
F391.40237350250783
s(I237
I844
tp447
F174.08709864117722
s(I59
I270
tp448
F404.29265379831321
s(I77
I558
tp449
F527.23197055289745
s(I8
I11
tp450
F3934.7845753746155
s(I464
I488
tp451
F198.55902028679589
s(I9
I854
tp452
F16734.649786517577
s(I345
I672
tp453
F1252.2677100853593
s(I15
I413
tp454
F5521.5971733381248
s(I273
I428
tp455
F221.64226222673227
s(I58
I714
tp456
F861.19447783150815
s(I422
I433
tp457
F280.22909807058028
s(I116
I324
tp458
F332.95832334023004
s(I79
I112
tp459
F133.04329882364149
s(I6
I304
tp460
F2736.0722462420249
s(I82
I385
tp461
F505.98352197272078
s(I9
I679
tp462
F1384.8362345089402
s(I22
I832
tp463
F547.84375365776316
s(I12
I15
tp464
F2346.8002568928728
s(I13
I151
tp465
F1063.4401439943308
s(I56
I81
tp466
F454.30922328606573
s(I772
I818
tp467
F3195.875580801242
s(I2
I21
tp468
F2418.4903101117102
s(I19
I157
tp469
F447.21482745986287
s(I91
I323
tp470
F824.7186550893216
s(I9
I560
tp471
F1929.7568932117251
s(I675
I915
tp472
F6332.247928547913
s(I71
I893
tp473
F255.45488811154439
s(I113
I750
tp474
F267.24318617177079
s(I3
I46
tp475
F2654.7886900839444
s(I5
I580
tp476
F818.27122274995565
s(I11
I523
tp477
F830.01616212589522
s(I376
I636
tp478
F136.8174158424639
s(I452
I687
tp479
F218.91373579204398
s(I554
I943
tp480
F261.38376156808306
s(I3
I191
tp481
F1326.0275482024488
s(I91
I628
tp482
F200.67872988525562
s(I150
I487
tp483
F247.14986892952169
s(I29
I750
tp484
F530.53764592788855
s(I527
I624
tp485
F209.38111693374844
s(I14
I488
tp486
F657.55270854872253
s(I3
I294
tp487
F10109.573620623041
s(I69
I535
tp488
F500.29881965955815
s(I6
I299
tp489
F666.6492884020048
s(I264
I363
tp490
F255.59094459748485
s(I249
I307
tp491
F5452.807856481696
s(I196
I878
tp492
F130.52955210050715
s(I313
I802
tp493
F493.7873875798013
s(I385
I742
tp494
F3588.7133469921637
s(I26
I301
tp495
F1310.8506983353197
s(I9
I467
tp496
F3520.9651718742998
s(I84
I799
tp497
F473.50991625297155
s(I68
I381
tp498
F389.91694187794803
s(I69
I393
tp499
F556.42027249972898
s(I89
I144
tp500
F960.53347932480142
s(I255
I519
tp501
F182.88127117716769
s(I4
I297
tp502
F1809.0635109522932
s(I42
I685
tp503
F421.97226333039595
s(I441
I531
tp504
F105.17118894750473
s(I795
I940
tp505
F161.34769315651667
s(I134
I213
tp506
F475.90279733831403
s(I100
I816
tp507
F340.8165011137886
s(I66
I311
tp508
F659.70627466627207
s(I28
I482
tp509
F762.83600997604447
s(I13
I114
tp510
F1141.0558862062912
s(I144
I538
tp511
F425.07190241344586
s(I144
I239
tp512
F467.86829494343829
s(I698
I775
tp513
F358.62254792275087
s(I150
I878
tp514
F146.13237322632588
s(I339
I782
tp515
F587.30758998383635
s(I558
I822
tp516
F238.45117188665569
s(I7
I35
tp517
F437.09864113784721
s(I447
I925
tp518
F132.07306971718398
s(I13
I451
tp519
F1647.6115692173428
s(I89
I434
tp520
F5854.4820717568846
s(I711
I904
tp521
F159.24892877304725
s(I143
I222
tp522
F725.21186280465417
s(I144
I228
tp523
F404.08217958933608
s(I308
I769
tp524
F205.2286795116847
s(I66
I365
tp525
F630.89263268443403
s(I3
I309
tp526
F745.78342087232306
s(I25
I832
tp527
F368.55812752650576
s(I8
I136
tp528
F1199.9081186978028
s(I653
I744
tp529
F121.92061749047791
s(I11
I181
tp530
F1531.6216963872846
s(I103
I124
tp531
F934.94582137737859
s(I198
I570
tp532
F400.20357251020863
s(I0
I386
tp533
F1071.3213766987603
s(I1
I308
tp534
F844.27535426029533
s(I41
I81
tp535
F884.3279787224393
s(I8
I25
tp536
F2025.1658052867986
s(I21
I943
tp537
F638.39580277257323
s(I81
I614
tp538
F227.26836666378392
s(I9
I111
tp539
F5278.451487461879
s(I118
I539
tp540
F220.60875465970926
s(I157
I649
tp541
F156.19578418958764
s(I162
I170
tp542
F660.09047844716974
s(I474
I575
tp543
F2423.3755043755209
s(I1
I165
tp544
F838.4596651369917
s(I256
I528
tp545
F293.11433346576428
s(I79
I356
tp546
F209.4548045443814
s(I155
I258
tp547
F857.89094466007634
s(I411
I585
tp548
F219.05646701080127
s(I213
I947
tp549
F2043.964075186818
s(I1
I952
tp550
F962.07122599628144
s(I73
I942
tp551
F431.51703978079689
s(I241
I745
tp552
F340.08965085574033
s(I41
I431
tp553
F375.55875593456381
s(I24
I369
tp554
F436.36072308757133
s(I6
I764
tp555
F1538.3905796639247
s(I9
I182
tp556
F2238.8359044019826
s(I7
I999
tp557
F802.63781240733556
s(I11
I93
tp558
F5301.3213762807882
s(I178
I445
tp559
F253.50321143368276
s(I8
I143
tp560
F2175.0258519889462
s(I281
I627
tp561
F428.90414204470517
s(I30
I864
tp562
F392.79143458133234
s(I353
I367
tp563
F638.64406027138364
s(I49
I74
tp564
F759.47043489914392
s(I71
I285
tp565
F305.64702284030625
s(I182
I255
tp566
F414.30758543231656
s(I20
I59
tp567
F1293.0109756319728
s(I3
I5
tp568
F6226.4072277342229
s(I168
I409
tp569
F174.15598555876323
s(I8
I719
tp570
F532.24124927151638
s(I11
I965
tp571
F619.83580145344854
s(I30
I669
tp572
F1630.9082434369477
s(I322
I360
tp573
F1500.4067809046219
s(I412
I599
tp574
F289.53535782061715
s(I146
I854
tp575
F2599.5844018567868
s(I131
I274
tp576
F329.93760996365359
s(I160
I270
tp577
F227.7674520254435
s(I47
I142
tp578
F251.40118695494868
s(I12
I92
tp579
F1449.9111464617602
s(I358
I367
tp580
F1408.8260306609914
s(I15
I570
tp581
F605.87741917240601
s(I345
I375
tp582
F1271.9497132718272
s(I22
I984
tp583
F463.43642133715394
s(I6
I203
tp584
F730.91621271884958
s(I405
I737
tp585
F224.29124552020062
s(I214
I430
tp586
F229.46233413537536
s(I12
I901
tp587
F845.36884793069078
s(I141
I401
tp588
F238.69275731148792
s(I111
I615
tp589
F299.93410997034368
s(I175
I408
tp590
F168.69084440169493
s(I275
I709
tp591
F10278.914946919493
s(I169
I280
tp592
F284.64449566638621
s(I100
I747
tp593
F650.13119630708161
s(I232
I708
tp594
F246.64028666897278
s(I563
I648
tp595
F104.99059776420928
s(I31
I107
tp596
F2637.7052980797757
s(I509
I723
tp597
F258.02492035911092
s(I3
I10
tp598
F3688.0851452493489
s(I6
I356
tp599
F1323.2459458594294
s(I24
I133
tp600
F471.06942537447685
s(I6
I928
tp601
F728.74167024413907
s(I206
I685
tp602
F235.45440993115409
s(I10
I786
tp603
F406.06589864000819
s(I111
I180
tp604
F461.48597233270334
s(I49
I131
tp605
F251.7109246870331
s(I15
I914
tp606
F756.58884102887907
s(I1
I32
tp607
F5018.035062940995
s(I339
I629
tp608
F133.54598321521905
s(I39
I642
tp609
F382.17995177136157
s(I6
I750
tp610
F866.65362872973174
s(I25
I541
tp611
F458.70321493869
s(I39
I781
tp612
F386.74194699608728
s(I47
I600
tp613
F159.57429875618089
s(I28
I638
tp614
F908.87922505814834
s(I13
I664
tp615
F1754.0184050031053
s(I411
I503
tp616
F163.74289199792298
s(I107
I479
tp617
F1582.2014005371198
s(I163
I449
tp618
F54.122560990208036
s(I359
I590
tp619
F605.46419759928813
s(I133
I269
tp620
F251.02437203059995
s(I976
I993
tp621
F1218.2443718765953
s(I96
I646
tp622
F456.21146502301133
s(I40
I929
tp623
F699.98146930579799
s(I10
I628
tp624
F362.77871373700526
s(I12
I42
tp625
F2540.8896950240705
s(I24
I939
tp626
F851.558631566808
s(I111
I470
tp627
F630.66317843237334
s(I22
I138
tp628
F261.0726264320412
s(I761
I817
tp629
F261.24660785194652
s(I79
I194
tp630
F266.01560606491853
s(I155
I821
tp631
F8855.2841414796385
s(I857
I885
tp632
F190.40646831850074
s(I10
I16
tp633
F1444.2618099549873
s(I249
I755
tp634
F490.90534382182443
s(I826
I901
tp635
F245.85153888399981
s(I25
I201
tp636
F440.96864023110987
s(I344
I729
tp637
F313.24109834925775
s(I112
I661
tp638
F286.79815918169174
s(I150
I299
tp639
F197.39339347953555
s(I10
I342
tp640
F5939.8369875621738
s(I85
I88
tp641
F321.47518565261419
s(I251
I797
tp642
F632.59864360844938
s(I146
I790
tp643
F168.27962361522549
s(I71
I416
tp644
F553.65396075751823
s(I0
I762
tp645
F595.00093087001198
s(I607
I713
tp646
F841.393150805799
s(I556
I922
tp647
F275.62076191402741
s(I354
I981
tp648
F3066.6236792409381
s(I25
I179
tp649
F445.71427563901403
s(I247
I862
tp650
F1620.2699777798082
s(I42
I271
tp651
F394.62484140546809
s(I32
I262
tp652
F699.17979536444648
s(I178
I797
tp653
F615.70409701462006
s(I17
I598
tp654
F346.89819500011299
s(I453
I571
tp655
F283.88045047464396
s(I55
I172
tp656
F734.61570369596336
s(I77
I255
tp657
F546.04413264876189
s(I25
I860
tp658
F493.92170300826581
s(I7
I159
tp659
F737.7417540318969
s(I13
I173
tp660
F2064.8924331338312
s(I430
I471
tp661
F462.34800038921804
s(I19
I113
tp662
F1231.8411805236888
s(I42
I50
tp663
F642.37227297314439
s(I280
I729
tp664
F249.4130083494409
s(I118
I946
tp665
F301.05018984508212
s(I66
I172
tp666
F1139.4146342816236
s(I195
I592
tp667
F161.7307856041534
s(I3
I60
tp668
F1263.7924746319516
s(I373
I444
tp669
F138.25932542179288
s(I185
I604
tp670
F1084.1462189777842
s(I666
I879
tp671
F6271.2575346068597
s(I259
I719
tp672
F306.63667550240945
s(I2
I126
tp673
F3989.3313831462769
s(I9
I321
tp674
F1385.6482272361186
s(I10
I337
tp675
F707.84241317921055
s(I175
I286
tp676
F413.16339507545132
s(I12
I844
tp677
F732.05123331840934
s(I53
I820
tp678
F537.85004974786273
s(I5
I598
tp679
F529.20109322588792
s(I129
I483
tp680
F574.38823411392377
s(I8
I220
tp681
F782.66490412488565
s(I245
I422
tp682
F923.40298494937713
s(I262
I780
tp683
F146.32339092586201
s(I212
I356
tp684
F1461.8948268950915
s(I195
I228
tp685
F247.08061312199186
s(I55
I599
tp686
F582.31813408411062
s(I14
I470
tp687
F285.28882779861033
s(I394
I433
tp688
F1291.5556127836364
s(I77
I248
tp689
F370.92154613471376
s(I122
I819
tp690
F934.49628220996135
s(I260
I655
tp691
F190.56093942625776
s(I31
I361
tp692
F888.65710411656789
s(I32
I742
tp693
F10887.474297337154
s(I34
I45
tp694
F766.90402948006363
s(I130
I793
tp695
F724.88549773664636
s(I116
I546
tp696
F107.26261467250417
s(I3
I423
tp697
F1697.5259762752071
s(I41
I632
tp698
F536.45352602199978
s(I80
I376
tp699
F493.81968558722065
s(I11
I78
tp700
F2415.3269238496478
s(I51
I850
tp701
F825.06363429887529
s(I640
I762
tp702
F180.56514033258884
s(I4
I548
tp703
F1068.9261338500903
s(I573
I949
tp704
F103.40592028420468
s(I613
I691
tp705
F115.15586386263885
s(I10
I344
tp706
F394.39109308233071
s(I29
I556
tp707
F767.78716199497433
s(I212
I764
tp708
F1196.4410230217115
s(I451
I659
tp709
F431.42139860022439
s(I12
I691
tp710
F827.60131831651699
s(I133
I833
tp711
F354.82795247903471
s(I71
I75
tp712
F1123.0592089109125
s(I185
I982
tp713
F336.88812712342138
s(I40
I506
tp714
F482.37610397211029
s(I95
I650
tp715
F413.13555322703746
s(I98
I231
tp716
F119.78203779175759
s(I43
I103
tp717
F1686.9284913741744
s(I7
I117
tp718
F1432.4805896063449
s(I122
I225
tp719
F1132.3555154972178
s(I30
I174
tp720
F3180.8081048656973
s(I69
I550
tp721
F572.73811452847428
s(I12
I986
tp722
F650.98684602531364
s(I85
I511
tp723
F1017.2295601523282
s(I398
I455
tp724
F253.64160501484625
s(I473
I889
tp725
F175.16659402845798
s(I311
I930
tp726
F153.56954298242431
s(I2
I42
tp727
F2197.1770466282755
s(I3
I287
tp728
F10274.209678457835
s(I833
I883
tp729
F97.423157793732557
s(I26
I491
tp730
F385.8110347629908
s(I300
I766
tp731
F3397.9049885012087
s(I339
I864
tp732
F160.2930064751651
s(I34
I36
tp733
F1247.0784320439584
s(I215
I658
tp734
F179.08609681697911
s(I199
I639
tp735
F2720.21167070518
s(I19
I127
tp736
F1109.0282413236971
s(I40
I195
tp737
F295.78113149227022
s(I25
I100
tp738
F958.43322250845665
s(I6
I70
tp739
F3618.3452333183586
s(I10
I13
tp740
F4637.3745255404538
s(I29
I131
tp741
F1167.0911712077236
s(I49
I94
tp742
F543.47745549102092
s(I341
I573
tp743
F204.08512042407446
s(I31
I90
tp744
F404.63569626195903
s(I4
I725
tp745
F741.25821242370421
s(I272
I768
tp746
F324.05353673500218
s(I129
I905
tp747
F507.88323268375456
s(I439
I801
tp748
F503.91540847235029
s(I26
I720
tp749
F1743.2683987801868
s(I195
I408
tp750
F228.4804225107732
s(I1
I12
tp751
F4296.9785229718036
s(I147
I221
tp752
F160.5330710411082
s(I20
I341
tp753
F653.31399614802865
s(I97
I589
tp754
F481.00400871044656
s(I4
I15
tp755
F2624.1178649830945
s(I120
I643
tp756
F378.17104337185526
s(I66
I407
tp757
F5056.8494725815008
s(I2
I767
tp758
F440.48030429675811
s(I31
I813
tp759
F612.7195143197456
s(I198
I333
tp760
F5444.6730093879396
s(I19
I23
tp761
F908.15197942235318
s(I11
I653
tp762
F767.97786812078766
s(I41
I840
tp763
F304.27035659881074
s(I5
I40
tp764
F1045.5310845500621
s(I189
I475
tp765
F216.84581310114368
s(I9
I45
tp766
F1125.9084102567542
s(I10
I165
tp767
F525.45138234351941
s(I28
I260
tp768
F710.5294577047232
s(I12
I206
tp769
F579.59389271092334
s(I20
I559
tp770
F692.88307247666728
s(I17
I29
tp771
F3526.5634402134165
s(I92
I160
tp772
F323.30015641139022
s(I240
I285
tp773
F178.55878332609831
s(I16
I80
tp774
F1333.1174112193614
s(I380
I406
tp775
F162.79861021368254
s(I4
I301
tp776
F2569.2035122774428
s(I26
I357
tp777
F4668.4974750293177
s(I22
I418
tp778
F362.50269482245
s(I172
I670
tp779
F8288.7086530912929
s(I185
I437
tp780
F246.46106890199812
s(I196
I386
tp781
F360.72946858020225
s(I235
I530
tp782
F561.86463592355324
s(I34
I942
tp783
F435.63578450726163
s(I290
I945
tp784
F3190.2514066098834
s(I420
I608
tp785
F166.50358116139353
s(I38
I51
tp786
F1989.0774572025114
s(I3
I111
tp787
F7561.1041966906296
s(I370
I397
tp788
F332.61502283257653
s(I27
I270
tp789
F378.93730090046853
s(I136
I588
tp790
F248.77033644038383
s(I28
I125
tp791
F728.51586033478259
s(I17
I814
tp792
F1794.9426757287315
s(I28
I919
tp793
F635.21253910078713
s(I32
I120
tp794
F950.12663188901161
s(I432
I637
tp795
F288.96755589397668
s(I166
I168
tp796
F225.50532768402849
s(I343
I450
tp797
F273.95862319416005
s(I1
I5
tp798
F5607.5028503865551
s(I184
I291
tp799
F102.67585457092828
s(I22
I72
tp800
F808.51692211928821
s(I27
I156
tp801
F495.63762431112525
s(I50
I129
tp802
F604.30020739848783
s(I305
I399
tp803
F158.85962460802722
s(I107
I432
tp804
F668.2590116931384
s(I515
I642
tp805
F206.06606284818355
s(I664
I882
tp806
F210.79920028714659
s(I41
I291
tp807
F459.55892212635774
s(I116
I386
tp808
F285.62954365825163
s(I118
I442
tp809
F360.53379720527005
s(I9
I86
tp810
F720.80533791064477
s(I10
I172
tp811
F1850.2449044021048
s(I599
I866
tp812
F1272.5344929187993
s(I13
I209
tp813
F2183.3601815170337
s(I107
I321
tp814
F722.90325169852997
s(I15
I72
tp815
F844.24116354765704
s(I58
I970
tp816
F460.65636495215125
s(I76
I477
tp817
F786.02102983550401
s(I130
I152
tp818
F1666.6764239631621
s(I521
I568
tp819
F171.77052528368316
s(I22
I426
tp820
F1290.9116216250711
s(I5
I418
tp821
F635.11411462713647
s(I16
I330
tp822
F338.30479071361896
s(I76
I300
tp823
F2688.7953928762086
s(I42
I412
tp824
F591.51999948201751
s(I11
I20
tp825
F3214.5093120308443
s(I141
I254
tp826
F664.12857196368464
s(I107
I623
tp827
F508.12599535509912
s(I236
I247
tp828
F4697.1331237033446
s(I110
I450
tp829
F480.18150167782574
s(I528
I771
tp830
F135.40765223195561
s(I96
I156
tp831
F276.908485668222
s(I3
I696
tp832
F9717.197776965113
s(I633
I637
tp833
F91.481137233448152
s(I195
I279
tp834
F2598.0670715514793
s(I450
I565
tp835
F195.74853186888788
s(I325
I935
tp836
F254.67597638218271
s(I36
I686
tp837
F12615.157497744318
s(I250
I726
tp838
F247.44420884406622
s(I183
I521
tp839
F67.150065978074068
s(I96
I267
tp840
F349.53080472569292
s(I22
I50
tp841
F844.54277216046296
s(I11
I719
tp842
F594.74729102677657
s(I62
I414
tp843
F174.90197904305555
s(I31
I160
tp844
F618.77701688593061
s(I452
I574
tp845
F303.1410805787167
s(I288
I439
tp846
F369.52293261665261
s(I15
I81
tp847
F914.72142814019378
s(I236
I405
tp848
F1111.1705424754787
s(I55
I62
tp849
F262.26357986770688
s(I4
I275
tp850
F3032.0079232841358
s(I65
I621
tp851
F715.52974800008315
s(I65
I208
tp852
F1066.8298035992013
s(I258
I786
tp853
F242.06843017090694
s(I67
I724
tp854
F645.75715035897065
s(I12
I339
tp855
F1470.729165440411
s(I144
I150
tp856
F724.39009364104652
s(I15
I198
tp857
F1316.4804163010399
s(I164
I217
tp858
F121.09153047113034
s(I19
I259
tp859
F2191.6242763629616
s(I58
I497
tp860
F507.54214476435919
s(I97
I743
tp861
F361.05047549629592
s(I722
I830
tp862
F227.31609308280781
s(I9
I358
tp863
F6485.429234607629
s(I103
I583
tp864
F3077.5767552439829
s(I428
I616
tp865
F996.11770830346359
s(I199
I431
tp866
F344.21302726165726
s(I54
I109
tp867
F372.04303529541306
s(I26
I312
tp868
F569.54954454576773
s(I31
I153
tp869
F503.59627702890361
s(I354
I907
tp870
F212.56311908006802
s(I117
I669
tp871
F1187.309332363541
s(I10
I690
tp872
F8617.6016192407387
s(I389
I558
tp873
F259.90383517061764
s(I251
I625
tp874
F374.16727613991054
s(I30
I784
tp875
F669.58025803241765
s(I142
I366
tp876
F171.83541736393428
s(I4
I336
tp877
F478.65619814438935
s(I0
I798
tp878
F656.75273775678147
s(I203
I825
tp879
F219.82769762815985
s(I3
I718
tp880
F1386.4493132303605
s(I208
I332
tp881
F289.81634384891629
s(I5
I734
tp882
F612.41467833898048
s(I392
I974
tp883
F359.06339584959386
s(I7
I238
tp884
F730.05494339713152
s(I299
I817
tp885
F235.54675038658414
s(I66
I521
tp886
F299.48169864033912
s(I50
I505
tp887
F197.78081083924855
s(I12
I512
tp888
F11511.307978429491
s(I89
I178
tp889
F834.89280118720819
s(I126
I596
tp890
F870.30790157963838
s(I4
I680
tp891
F510.93166112027603
s(I386
I618
tp892
F208.91562830464201
s(I24
I78
tp893
F1014.9131044130332
s(I6
I985
tp894
F16159.545063518604
s(I6
I34
tp895
F1518.4942719532391
s(I634
I881
tp896
F113.50811637532875
s(I28
I845
tp897
F696.52667966096556
s(I3
I66
tp898
F4334.3152532224885
s(I15
I20
tp899
F1971.3361432059146
s(I45
I962
tp900
F441.41991375478489
s(I9
I802
tp901
F1135.2467683265352
s(I11
I639
tp902
F8704.6067645623061
s(I67
I362
tp903
F308.84902034881628
s(I46
I850
tp904
F286.22790553680426
s(I175
I448
tp905
F545.99410869749966
s(I239
I765
tp906
F322.5514159598352
s(I204
I510
tp907
F105.19979265172482
s(I654
I724
tp908
F1459.8001738093037
s(I405
I689
tp909
F271.20686529597117
s(I7
I86
tp910
F545.88571088577987
s(I64
I904
tp911
F193.203382888763
s(I104
I186
tp912
F254.62145073205201
s(I88
I916
tp913
F437.1086892601823
s(I3
I8
tp914
F5107.5025927607521
s(I219
I609
tp915
F169.92324880699317
s(I3
I352
tp916
F2818.6895895157027
s(I206
I281
tp917
F898.42038638875636
s(I207
I405
tp918
F872.46507166261097
s(I7
I183
tp919
F709.13568372118937
s(I13
I252
tp920
F1224.9919483854364
s(I269
I391
tp921
F283.34089956613911
s(I75
I504
tp922
F230.15412048429232
s(I38
I204
tp923
F313.58466317097276
s(I24
I811
tp924
F325.56513482196436
s(I148
I816
tp925
F305.60922585763461
s(I481
I545
tp926
F177.01966089466086
s(I5
I616
tp927
F13719.910283354577
s(I9
I986
tp928
F664.77833695777565
s(I19
I680
tp929
F303.33155400924812
s(I284
I671
tp930
F3733.4316285425402
s(I49
I115
tp931
F504.01768523317338
s(I30
I431
tp932
F303.06122504286128
s(I108
I205
tp933
F507.43809174560874
s(I130
I638
tp934
F1014.9196571188286
s(I22
I688
tp935
F701.99634379789541
s(I24
I271
tp936
F374.7840601666984
s(I385
I975
tp937
F414.91589587834852
s(I9
I144
tp938
F2238.4098631892307
s(I176
I565
tp939
F292.23209169571396
s(I50
I210
tp940
F216.56666853906557
s(I68
I757
tp941
F332.66517744550868
s(I329
I454
tp942
F645.45720400422863
s(I57
I124
tp943
F888.16771885984986
s(I38
I430
tp944
F592.74632288312625
s(I149
I153
tp945
F222.52769275834288
s(I149
I263
tp946
F2961.4349336482433
s(I10
I298
tp947
F391.7259665289007
s(I27
I155
tp948
F562.87487565962329
s(I304
I772
tp949
F6633.4072356923134
s(I46
I531
tp950
F192.69631696842524
s(I32
I696
tp951
F3012.2383757883863
s(I324
I465
tp952
F2415.3169687455224
s(I17
I97
tp953
F2878.162600465279
s(I164
I272
tp954
F256.74216810166473
s(I368
I801
tp955
F171.17234753550539
s(I310
I713
tp956
F2118.2727270336654
s(I496
I917
tp957
F149.81738825252287
s(I26
I868
tp958
F422.61635303032818
s(I10
I64
tp959
F1796.3857508025749
s(I673
I896
tp960
F133.60508011939896
s(I11
I281
tp961
F4061.2644331305164
s(I144
I305
tp962
F322.66875568350383
s(I20
I748
tp963
F641.22892151994313
s(I55
I752
tp964
F166.36643544078609
s(I21
I320
tp965
F718.03981230849149
s(I25
I82
tp966
F519.28681404124723
s(I207
I259
tp967
F1566.855415400473
s(I9
I264
tp968
F974.3691402712534
s(I12
I645
tp969
F657.36053438035003
s(I16
I438
tp970
F350.20600389551259
s(I236
I273
tp971
F904.64677436558657
s(I74
I116
tp972
F390.00711756475908
s(I38
I909
tp973
F589.30170645287797
s(I213
I809
tp974
F178.97242426451473
s(I60
I845
tp975
F297.31731468349392
s(I4
I66
tp976
F2671.3217100877255
s(I494
I937
tp977
F279.22709643297873
s(I5
I279
tp978
F9918.0073347296784
s(I262
I837
tp979
F330.33135709075742
s(I443
I539
tp980
F131.29390990067893
s(I47
I283
tp981
F219.46092096018575
s(I24
I585
tp982
F213.75285046294456
s(I107
I587
tp983
F788.7142580658234
s(I53
I64
tp984
F686.91217482030186
s(I75
I223
tp985
F322.02945373281267
s(I24
I389
tp986
F276.42817678024909
s(I7
I68
tp987
F1456.3086717812394
s(I264
I382
tp988
F33.26058077853407
s(I102
I313
tp989
F893.18319598867106
s(I255
I478
tp990
F334.45606019049609
s(I93
I495
tp991
F586.80836567970471
s(I55
I344
tp992
F153.14635094400776
s(I97
I415
tp993
F6392.3708644078124
s(I5
I126
tp994
F7663.8331159348472
s(I155
I768
tp995
F424.794439222135
s(I154
I277
tp996
F144.02980095180314
s(I45
I418
tp997
F191.63384120038583
s(I44
I960
tp998
F314.60432325052267
s(I285
I798
tp999
F193.25174636156606
s(I549
I908
tp1000
F136.79304247773905
s(I20
I32
tp1001
F3968.311496344636
s(I3
I40
tp1002
F1318.3157351094994
s(I4
I954
tp1003
F957.54995848584554
s(I6
I23
tp1004
F1544.4497889325125
s(I101
I821
tp1005
F9656.5841339977833
s(I10
I385
tp1006
F1580.625598603506
s(I263
I843
tp1007
F3260.7468439665176
s(I32
I35
tp1008
F472.55838130925702
s(I13
I127
tp1009
F3265.1635937406813
s(I163
I602
tp1010
F129.81447954741762
s(I148
I730
tp1011
F153.78553899729613
s(I3
I963
tp1012
F716.35931304798066
s(I5
I272
tp1013
F1400.4573392296691
s(I8
I12
tp1014
F3244.7941975123049
s(I228
I965
tp1015
F164.40545919222387
s(I138
I691
tp1016
F231.87780816771689
s(I36
I87
tp1017
F4394.6463308191487
s(I42
I860
tp1018
F580.7604939768072
s(I1
I392
tp1019
F2926.7558014430938
s(I40
I893
tp1020
F253.41269617119013
s(I3
I198
tp1021
F2655.1002793943653
s(I6
I236
tp1022
F7416.9117974035607
s(I450
I935
tp1023
F241.54602413451425
s(I68
I522
tp1024
F478.54844526336723
s(I180
I535
tp1025
F216.50643950680967
s(I331
I334
tp1026
F3484.9961088359119
s(I2
I18
tp1027
F2903.0919038260436
s(I57
I690
tp1028
F3618.7050143374454
s(I39
I966
tp1029
F169.45801803912468
s(I79
I693
tp1030
F223.76234959090345
s(I8
I469
tp1031
F681.33753210701241
s(I7
I210
tp1032
F910.17648976131579
s(I29
I822
tp1033
F513.26916570244293
s(I285
I428
tp1034
F224.80420882622096
s(I12
I19
tp1035
F1799.2267525412678
s(I56
I908
tp1036
F694.54661520290074
s(I37
I572
tp1037
F450.43441182431673
s(I22
I746
tp1038
F504.18869013069775
s(I97
I862
tp1039
F708.47251249450903
s(I17
I144
tp1040
F1601.2722097693338
s(I41
I650
tp1041
F549.98237654177126
s(I28
I63
tp1042
F372.96291736419363
s(I46
I330
tp1043
F242.74212734264486
s(I244
I970
tp1044
F1548.9303876074136
s(I192
I381
tp1045
F200.61871244974805
s(I73
I931
tp1046
F425.42111390586416
s(I293
I397
tp1047
F186.91549649737914
s(I4
I48
tp1048
F1821.8256507339727
s(I79
I971
tp1049
F461.668967505924
s(I63
I88
tp1050
F112.16405453198001
s(I6
I604
tp1051
F4640.4333240998967
s(I227
I540
tp1052
F2239.0103884405603
s(I15
I485
tp1053
F448.89642171925067
s(I643
I964
tp1054
F167.59366161911458
s(I0
I834
tp1055
F554.35517333709959
s(I4
I93
tp1056
F5445.2668363734092
s(I258
I605
tp1057
F1684.1306365936564
s(I315
I660
tp1058
F346.68769022369895
s(I10
I593
tp1059
F707.76628408089982
s(I232
I278
tp1060
F218.52288497930948
s(I13
I708
tp1061
F1051.4105217252923
s(I86
I463
tp1062
F162.72284513829243
s(I77
I178
tp1063
F930.26642001490461
s(I526
I973
tp1064
F300.0145039942235
s(I668
I891
tp1065
F98.399829548648555
s(I207
I361
tp1066
F1371.4531763665075
s(I118
I491
tp1067
F186.34350718224553
s(I66
I78
tp1068
F1078.6300907271609
s(I25
I424
tp1069
F548.84236777934177
s(I12
I547
tp1070
F470.45641423959239
s(I605
I923
tp1071
F1314.8050798882437
s(I92
I163
tp1072
F293.05802410381057
s(I20
I54
tp1073
F1652.581703317851
s(I669
I906
tp1074
F347.79527668953432
s(I28
I54
tp1075
F1630.7121989837472
s(I11
I413
tp1076
F8278.5307034476082
s(I655
I924
tp1077
F140.57517390590144
s(I1
I617
tp1078
F698.66475196508372
s(I58
I618
tp1079
F466.38236947383803
s(I4
I63
tp1080
F608.36358747095346
s(I133
I567
tp1081
F367.17942413763262
s(I6
I847
tp1082
F443.95686791061257
s(I7
I34
tp1083
F1456.9297713018395
s(I9
I177
tp1084
F585.2319341843961
s(I143
I161
tp1085
F917.77069062515568
s(I17
I444
tp1086
F756.9793637264961
s(I400
I452
tp1087
F263.2048946325088
s(I71
I588
tp1088
F402.22568694989872
s(I10
I35
tp1089
F411.84260080111954
s(I370
I667
tp1090
F375.3829161543664
s(I149
I189
tp1091
F532.42680124723006
s(I650
I825
tp1092
F167.58921324794733
s(I387
I872
tp1093
F175.38469273693056
s(I7
I179
tp1094
F629.72193649895883
s(I88
I514
tp1095
F123.94201069335737
s(I13
I136
tp1096
F1206.901430625094
s(I15
I19
tp1097
F1542.1820974314624
s(I36
I180
tp1098
F683.5213553728463
s(I738
I871
tp1099
F156.65177185455639
s(I28
I341
tp1100
F534.79171427675556
s(I112
I296
tp1101
F242.02986012994171
s(I169
I467
tp1102
F647.91701744519287
s(I392
I557
tp1103
F253.93586486952606
s(I176
I831
tp1104
F169.09337135397172
s(I37
I889
tp1105
F288.43595118518692
s(I126
I610
tp1106
F792.38079497429931
s(I474
I572
tp1107
F179.7800766508677
s(I20
I640
tp1108
F318.72661315156353
s(I41
I208
tp1109
F590.00284273025807
s(I258
I886
tp1110
F403.98333943985034
s(I578
I611
tp1111
F193.31806053589429
s(I153
I481
tp1112
F167.1165622374987
s(I635
I638
tp1113
F234.71471074031987
s(I28
I506
tp1114
F1167.8584406314794
s(I11
I402
tp1115
F891.96491044943434
s(I12
I284
tp1116
F1949.086356617946
s(I359
I488
tp1117
F317.81128276300876
s(I17
I977
tp1118
F486.98800733256422
s(I111
I237
tp1119
F1036.3478575564036
s(I236
I757
tp1120
F765.1372073111022
s(I1
I711
tp1121
F721.33228413999416
s(I250
I425
tp1122
F2037.4600658515728
s(I474
I997
tp1123
F265.75826361308026
s(I181
I586
tp1124
F288.10781294915427
s(I76
I574
tp1125
F811.70056160482
s(I347
I894
tp1126
F320.03902347505971
s(I3
I317
tp1127
F902.79176778295789
s(I8
I806
tp1128
F17393.428173072374
s(I34
I675
tp1129
F1004.8948561457033
s(I45
I938
tp1130
F1213.1128347576241
s(I10
I156
tp1131
F1357.4309174749976
s(I67
I910
tp1132
F279.48897591822788
s(I29
I219
tp1133
F880.27879811883304
s(I509
I918
tp1134
F200.68521987987918
s(I70
I946
tp1135
F436.34420272933204
s(I487
I928
tp1136
F146.53815397795589
s(I218
I705
tp1137
F358.24454342241063
s(I438
I740
tp1138
F227.26929322164946
s(I8
I458
tp1139
F1570.2009318441474
s(I45
I59
tp1140
F506.05150105666632
s(I29
I769
tp1141
F533.07789678569691
s(I13
I18
tp1142
F4762.2426402027641
s(I343
I783
tp1143
F139.27340909319827
s(I16
I207
tp1144
F4900.3963310471372
s(I0
I9
tp1145
F3276.2636636172292
s(I718
I873
tp1146
F225.58033329107664
s(I39
I232
tp1147
F1039.8180150868966
s(I22
I341
tp1148
F584.91984627798433
s(I25
I55
tp1149
F343.02767226054834
s(I23
I516
tp1150
F913.32574087361809
s(I781
I951
tp1151
F79.399364408697025
s(I14
I117
tp1152
F664.98692100643484
s(I13
I984
tp1153
F789.64887025887913
s(I7
I835
tp1154
F804.26853927431398
s(I269
I302
tp1155
F199.12574750765395
s(I553
I739
tp1156
F3766.8439870193474
s(I92
I233
tp1157
F346.96467604376613
s(I20
I894
tp1158
F1402.5695634548017
s(I494
I539
tp1159
F81.523991123255826
s(I0
I119
tp1160
F503.87588444942338
s(I388
I396
tp1161
F4862.9396637365917
s(I9
I190
tp1162
F2514.259288007016
s(I301
I424
tp1163
F407.64419322786199
s(I237
I629
tp1164
F176.72568616142783
s(I36
I43
tp1165
F2718.8781411312766
s(I36
I480
tp1166
F569.54786020081008
s(I458
I575
tp1167
F2089.9621090248088
s(I3
I761
tp1168
F690.93261025516051
s(I6
I200
tp1169
F651.96880911222752
s(I26
I65
tp1170
F2580.7808732363819
s(I28
I298
tp1171
F477.66387596533468
s(I102
I865
tp1172
F387.42711351970883
s(I33
I366
tp1173
F247.6951698202337
s(I0
I966
tp1174
F345.45616712430899
s(I27
I447
tp1175
F190.13531941732879
s(I100
I863
tp1176
F544.12019560977546
s(I140
I259
tp1177
F602.42982690448582
s(I107
I263
tp1178
F9124.3936475157061
s(I586
I677
tp1179
F215.85456191508638
s(I3
I13
tp1180
F7256.8580624451033
s(I593
I797
tp1181
F237.92183743329241
s(I371
I753
tp1182
F140.98567224879065
s(I172
I441
tp1183
F326.11640716771637
s(I482
I820
tp1184
F419.06075902960538
s(I339
I933
tp1185
F321.49658739207285
s(I214
I708
tp1186
F173.37790456487082
s(I71
I693
tp1187
F449.6308553158724
s(I89
I718
tp1188
F352.15019436528854
s(I18
I412
tp1189
F599.71651419282398
s(I15
I435
tp1190
F789.65676898263348
s(I13
I251
tp1191
F1756.435752508371
s(I151
I664
tp1192
F198.72190968089322
s(I474
I813
tp1193
F220.71402203349396
s(I6
I389
tp1194
F774.69584015279611
s(I11
I43
tp1195
F6094.1086296090843
s(I28
I178
tp1196
F1213.1745869859058
s(I29
I244
tp1197
F4721.2939351414288
s(I486
I594
tp1198
F273.8709784483404
s(I183
I328
tp1199
F253.73195629232595
s(I4
I878
tp1200
F916.48100108218011
s(I24
I495
tp1201
F520.29175799818086
s(I8
I190
tp1202
F2022.417189801984
s(I12
I957
tp1203
F831.9263338416265
s(I71
I381
tp1204
F464.49523670709209
s(I20
I91
tp1205
F1037.7366780254893
s(I4
I330
tp1206
F765.16030674889475
s(I557
I663
tp1207
F186.67707755061622
s(I38
I205
tp1208
F1677.997913433016
s(I8
I71
tp1209
F2497.1328724083883
s(I710
I716
tp1210
F307.74166997596905
s(I16
I434
tp1211
F7357.507100380687
s(I342
I894
tp1212
F1141.7828916443975
s(I127
I508
tp1213
F192.11601744545624
s(I31
I524
tp1214
F815.54378272323856
s(I237
I364
tp1215
F211.93244776827692
s(I38
I103
tp1216
F710.30890958629209
s(I42
I964
tp1217
F776.63409314728585
s(I41
I852
tp1218
F535.10805411614581
s(I208
I484
tp1219
F459.21024992529169
s(I5
I358
tp1220
F6544.8940551144442
s(I249
I921
tp1221
F709.86039960706296
s(I107
I538
tp1222
F590.37878780082053
s(I201
I715
tp1223
F314.78870605098223
s(I60
I749
tp1224
F482.51215014976623
s(I8
I272
tp1225
F1070.5927532307576
s(I281
I457
tp1226
F563.74481804186632
s(I10
I137
tp1227
F598.50444935483665
s(I9
I17
tp1228
F4380.0429643003918
s(I28
I741
tp1229
F531.42164289153482
s(I340
I695
tp1230
F202.77125965279984
s(I625
I876
tp1231
F245.86848800441282
s(I74
I529
tp1232
F388.83109699726958
s(I455
I731
tp1233
F243.31856549247846
s(I244
I606
tp1234
F5916.3795814375662
s(I116
I907
tp1235
F220.70946359132853
s(I7
I345
tp1236
F7196.6553580614027
s(I174
I314
tp1237
F544.93856931956998
s(I12
I177
tp1238
F466.33194378154019
s(I103
I703
tp1239
F345.87118038607542
s(I269
I456
tp1240
F302.29030787039153
s(I13
I148
tp1241
F2359.9883026273028
s(I26
I84
tp1242
F697.21931273068151
s(I125
I907
tp1243
F220.61640738264438
s(I300
I559
tp1244
F602.89477244149134
s(I672
I815
tp1245
F180.71047184715914
s(I3
I542
tp1246
F1160.5404836048201
s(I161
I688
tp1247
F373.90964230986452
s(I5
I787
tp1248
F1090.2549930421185
s(I41
I112
tp1249
F482.1582738739109
s(I94
I246
tp1250
F222.92393963257109
s(I112
I265
tp1251
F188.15535561179721
s(I5
I826
tp1252
F1082.0251547517939
s(I27
I171
tp1253
F680.73923142025433
s(I11
I120
tp1254
F1131.7001816685226
s(I50
I328
tp1255
F485.82147096614034
s(I329
I844
tp1256
F232.19063097368237
s(I0
I828
tp1257
F948.45088242456507
s(I249
I394
tp1258
F6078.7096451747002
s(I347
I858
tp1259
F241.83984913383873
s(I268
I364
tp1260
F96.486627536550117
s(I668
I830
tp1261
F394.71601188629046
s(I46
I90
tp1262
F250.46184929397467
s(I140
I345
tp1263
F2151.3372152525321
s(I20
I503
tp1264
F731.71097431366741
s(I31
I282
tp1265
F4478.2081046178637
s(I16
I609
tp1266
F434.0761293906433
s(I402
I582
tp1267
F292.36179521037263
s(I22
I390
tp1268
F1059.301393247961
s(I20
I139
tp1269
F514.99056951837008
s(I524
I567
tp1270
F226.40053536129813
s(I83
I353
tp1271
F262.9222646567203
s(I29
I997
tp1272
F431.14414152766614
s(I30
I70
tp1273
F1311.1420689735326
s(I13
I54
tp1274
F2287.7084609740473
s(I74
I431
tp1275
F300.20131334662921
s(I343
I350
tp1276
F123.30039411036809
s(I17
I179
tp1277
F765.8667877931149
s(I146
I579
tp1278
F3715.8109873845574
s(I20
I675
tp1279
F2780.3339236906636
s(I4
I463
tp1280
F1040.2520148123681
s(I8
I117
tp1281
F1394.8823018371352
s(I11
I439
tp1282
F1057.7397006681856
s(I506
I613
tp1283
F188.60411045908793
s(I198
I312
tp1284
F392.84313405643479
s(I199
I458
tp1285
F967.2010542845934
s(I73
I885
tp1286
F499.46854227672605
s(I471
I876
tp1287
F343.24246965380075
s(I5
I360
tp1288
F11194.118129403818
s(I67
I281
tp1289
F1000.253307812304
s(I12
I65
tp1290
F4043.1592538927503
s(I136
I184
tp1291
F169.35229584721142
s(I0
I462
tp1292
F1914.6715784199114
s(I664
I869
tp1293
F2523.474136086506
s(I19
I891
tp1294
F405.53314014063653
s(I97
I742
tp1295
F5919.9589149808171
s(I461
I710
tp1296
F236.05418081069769
s(I64
I272
tp1297
F541.59094476676171
s(I10
I187
tp1298
F314.62549735448482
s(I339
I867
tp1299
F150.9958442136427
s(I231
I273
tp1300
F147.4103534177014
s(I124
I250
tp1301
F1121.8974737976039
s(I4
I37
tp1302
F1446.8895519120892
s(I110
I264
tp1303
F396.53627727794645
s(I425
I554
tp1304
F2671.3988689778716
s(I494
I785
tp1305
F166.69284286176457
s(I333
I471
tp1306
F1356.0198506836359
s(I135
I353
tp1307
F450.02191108155711
s(I93
I666
tp1308
F1351.7094192282186
s(I31
I526
tp1309
F700.67315491083184
s(I161
I772
tp1310
F5896.5096259109887
s(I698
I834
tp1311
F220.14550984442289
s(I292
I951
tp1312
F362.57336339292692
s(I39
I133
tp1313
F483.85382198726961
s(I23
I122
tp1314
F2828.4987594763834
s(I586
I706
tp1315
F1410.2268453004883
s(I64
I73
tp1316
F766.80123851396115
s(I148
I425
tp1317
F3223.8713817878456
s(I28
I556
tp1318
F863.80883355007541
s(I174
I439
tp1319
F645.48744567409926
s(I213
I600
tp1320
F166.91306260447246
s(I126
I838
tp1321
F12888.763086036253
s(I17
I370
tp1322
F1854.6394198251123
s(I21
I638
tp1323
F768.7152537212105
s(I58
I84
tp1324
F873.04394856151509
s(I370
I857
tp1325
F531.29318346632772
s(I5
I134
tp1326
F1005.5400096559949
s(I11
I956
tp1327
F10852.171883594203
s(I10
I211
tp1328
F859.53781450474901
s(I47
I170
tp1329
F476.67850189348633
s(I31
I721
tp1330
F493.43858454440016
s(I15
I614
tp1331
F733.6080315827603
s(I41
I60
tp1332
F564.54587228855428
s(I419
I976
tp1333
F11123.015047959077
s(I59
I191
tp1334
F273.08320475874336
s(I151
I557
tp1335
F324.74125271653429
s(I11
I139
tp1336
F724.93902826447402
s(I28
I754
tp1337
F591.67778217909233
s(I69
I192
tp1338
F607.05196570294686
s(I182
I315
tp1339
F488.16174919011524
s(I662
I716
tp1340
F258.09112084602958
s(I311
I406
tp1341
F154.95009929108403
s(I41
I207
tp1342
F5624.7914829116235
s(I3
I404
tp1343
F731.53432991066586
s(I61
I768
tp1344
F409.91790649969079
s(I6
I62
tp1345
F1540.7229289712977
s(I245
I772
tp1346
F6791.1854119421987
s(I64
I304
tp1347
F761.11747468351473
s(I1
I235
tp1348
F8181.7674071293868
s(I183
I728
tp1349
F73.859455513498986
s(I134
I146
tp1350
F457.16243146039409
s(I262
I871
tp1351
F195.94834365669419
s(I467
I915
tp1352
F9141.4971670094983
s(I66
I809
tp1353
F731.36495024804447
s(I66
I658
tp1354
F702.99421278277669
s(I195
I384
tp1355
F469.75281245419762
s(I51
I135
tp1356
F1346.7692510600498
s(I70
I170
tp1357
F947.19132610691054
s(I515
I628
tp1358
F196.61250143440688
s(I1
I4
tp1359
F4814.561726166713
s(I41
I509
tp1360
F883.49078260108365
s(I5
I789
tp1361
F729.07770302452991
s(I210
I809
tp1362
F142.50501495392797
s(I249
I258
tp1363
F1114.9840122932496
s(I92
I721
tp1364
F187.82416193606943
s(I12
I119
tp1365
F646.3761840817956
s(I322
I462
tp1366
F532.17449402076193
s(I34
I196
tp1367
F655.61050185623253
s(I604
I915
tp1368
F8108.3760025737447
s(I91
I832
tp1369
F327.66606685051175
s(I130
I230
tp1370
F4340.1730360307211
s(I41
I961
tp1371
F738.21366089159903
s(I133
I656
tp1372
F236.27542560099536
s(I227
I343
tp1373
F179.20530624702621
s(I148
I280
tp1374
F404.54183503253842
s(I157
I266
tp1375
F231.39237940802388
s(I69
I877
tp1376
F544.1118694935667
s(I1
I648
tp1377
F860.44098808734384
s(I185
I193
tp1378
F232.49831922418704
s(I37
I928
tp1379
F176.63947492672543
s(I169
I466
tp1380
F282.25208061003849
s(I71
I80
tp1381
F1383.4956368185585
s(I117
I428
tp1382
F534.54006199851631
s(I338
I459
tp1383
F209.38983333045715
s(I45
I469
tp1384
F298.34517264334204
s(I22
I474
tp1385
F1483.1620971673008
s(I75
I656
tp1386
F442.21079294109353
s(I50
I258
tp1387
F415.94637513193322
s(I41
I77
tp1388
F2009.6828764785835
s(I661
I694
tp1389
F112.05130183284206
s(I42
I166
tp1390
F578.38480008922477
s(I405
I573
tp1391
F177.64606378452871
s(I544
I999
tp1392
F125.27558379013485
s(I69
I218
tp1393
F1666.9805608945403
s(I146
I882
tp1394
F317.03056983566768
s(I0
I734
tp1395
F288.91095918107374
s(I3
I699
tp1396
F727.17914624756941
s(I284
I996
tp1397
F165.35646628828715
s(I530
I601
tp1398
F205.05639568699155
s(I68
I552
tp1399
F1101.148036835938
s(I69
I368
tp1400
F697.42035420908371
s(I15
I35
tp1401
F401.93101127998921
s(I75
I380
tp1402
F322.30461331511646
s(I437
I808
tp1403
F213.84524932302679
s(I22
I51
tp1404
F3767.8900339368488
s(I5
I25
tp1405
F2582.6149466102474
s(I652
I964
tp1406
F235.22070883645836
s(I46
I437
tp1407
F446.66460719949492
s(I873
I927
tp1408
F241.51286487108845
s(I31
I596
tp1409
F978.82974399462648
s(I140
I906
tp1410
F371.08391306813888
s(I130
I144
tp1411
F2090.1198894182862
s(I97
I483
tp1412
F710.00065676243378
s(I207
I311
tp1413
F1883.6744158772428
s(I577
I780
tp1414
F228.30026895869756
s(I335
I660
tp1415
F270.09372993134593
s(I66
I629
tp1416
F564.16210319424977
s(I784
I808
tp1417
F131.28099732932355
s(I13
I90
tp1418
F1076.4168317755252
s(I17
I159
tp1419
F962.15793331119403
s(I1
I74
tp1420
F2489.5036154291347
s(I37
I340
tp1421
F283.54190931411955
s(I4
I537
tp1422
F829.54289400053631
s(I810
I929
tp1423
F138.05628567371963
s(I357
I759
tp1424
F690.5218963208074
s(I690
I715
tp1425
F710.29040736861543
s(I126
I268
tp1426
F1618.8069510944727
s(I145
I755
tp1427
F333.25164707371914
s(I1
I22
tp1428
F4410.3234737043103
s(I58
I564
tp1429
F694.13306466977679
s(I2
I713
tp1430
F6289.0208565322919
s(I369
I391
tp1431
F203.03288309877797
s(I577
I859
tp1432
F271.05888992191473
s(I7
I551
tp1433
F941.08056881247239
s(I174
I717
tp1434
F802.16748821745171
s(I32
I230
tp1435
F7671.0487662479227
s(I3
I9
tp1436
F5141.5588802734001
s(I548
I793
tp1437
F232.27195914743487
s(I71
I191
tp1438
F543.78120526814791
s(I347
I456
tp1439
F351.04472775237963
s(I77
I148
tp1440
F1088.4201809576809
s(I350
I498
tp1441
F325.69326015998814
s(I80
I530
tp1442
F467.69117793838365
s(I100
I128
tp1443
F418.87194980945623
s(I10
I95
tp1444
F1552.3633868699765
s(I11
I234
tp1445
F927.33792577715371
s(I31
I605
tp1446
F7317.7719189843592
s(I32
I853
tp1447
F625.46941954203692
s(I107
I235
tp1448
F3290.250246879616
s(I75
I777
tp1449
F231.32932441154182
s(I546
I893
tp1450
F80.649224926480315
s(I228
I602
tp1451
F131.10115924263096
s(I173
I508
tp1452
F99.053775193469761
s(I11
I379
tp1453
F10752.505161949783
s(I69
I736
tp1454
F410.84352911055697
s(I89
I840
tp1455
F358.56224482932606
s(I385
I569
tp1456
F224.39663013668124
s(I3
I536
tp1457
F864.20076869625404
s(I98
I349
tp1458
F193.25981886375627
s(I8
I24
tp1459
F1891.650294543781
s(I518
I829
tp1460
F315.80495323473201
s(I9
I61
tp1461
F1330.6905462436457
s(I11
I963
tp1462
F335.04164834363269
s(I54
I552
tp1463
F1283.3723544121503
s(I28
I141
tp1464
F2780.2237669273554
s(I381
I576
tp1465
F277.16913502469515
s(I625
I927
tp1466
F232.05246140640875
s(I94
I220
tp1467
F67.882628899676789
s(I24
I440
tp1468
F494.16347028160772
s(I133
I634
tp1469
F438.9639638591791
s(I6
I248
tp1470
F917.42200429594709
s(I118
I651
tp1471
F342.65743725453331
s(I526
I564
tp1472
F153.31571213289061
s(I20
I727
tp1473
F446.97036280703543
s(I181
I985
tp1474
F2558.8366883058411
s(I2
I477
tp1475
F731.2440454954874
s(I112
I496
tp1476
F181.27973618321667
s(I19
I924
tp1477
F714.40834660788505
s(I3
I355
tp1478
F431.58369846527751
s(I3
I822
tp1479
F1100.7471878944207
s(I5
I11
tp1480
F5248.1339739801024
s(I12
I944
tp1481
F651.73487969702364
s(I46
I632
tp1482
F454.96440997284219
s(I191
I943
tp1483
F258.21005969330332
s(I235
I608
tp1484
F705.58101554434984
s(I70
I99
tp1485
F625.31690906115534
s(I1
I326
tp1486
F588.8279957884472
s(I76
I830
tp1487
F584.72979988275165
s(I75
I782
tp1488
F1089.3303028210412
s(I189
I676
tp1489
F342.23847171183297
s(I6
I26
tp1490
F1477.9201802903408
s(I427
I454
tp1491
F1446.9793198712371
s(I28
I408
tp1492
F616.50727105484805
s(I84
I749
tp1493
F356.70657329453229
s(I140
I366
tp1494
F200.57249578355714
s(I396
I814
tp1495
F2160.393886832122
s(I511
I836
tp1496
F265.67611913469295
s(I41
I328
tp1497
F1039.2419538800805
s(I499
I763
tp1498
F664.69504687942378
s(I173
I699
tp1499
F122.67194308490286
s(I27
I116
tp1500
F228.89814716662696
s(I122
I165
tp1501
F1479.5988118317189
s(I12
I620
tp1502
F940.44547436576613
s(I2
I561
tp1503
F580.02244869729566
s(I34
I377
tp1504
F347.21259423734858
s(I70
I150
tp1505
F985.3031249262641
s(I474
I775
tp1506
F284.39917160819789
s(I257
I414
tp1507
F343.50147511534766
s(I832
I929
tp1508
F192.50213757443692
s(I636
I926
tp1509
F94.077341775871162
s(I251
I949
tp1510
F491.32097172096366
s(I289
I813
tp1511
F251.1652682612594
s(I144
I419
tp1512
F2968.1347831334638
s(I141
I684
tp1513
F358.45817972202428
s(I24
I46
tp1514
F500.94220665340038
s(I117
I932
tp1515
F784.55143531253304
s(I25
I795
tp1516
F552.62172241537314
s(I34
I440
tp1517
F409.14778343969522
s(I13
I244
tp1518
F11513.552060321088
s(I804
I820
tp1519
F169.85797355373268
s(I20
I26
tp1520
F1463.0634912076719
s(I258
I294
tp1521
F1051.1819420494744
s(I25
I81
tp1522
F1010.6478447877303
s(I59
I743
tp1523
F282.53656192531895
s(I1
I766
tp1524
F16521.840046517988
s(I83
I139
tp1525
F194.82557036904191
s(I356
I804
tp1526
F362.96005566274243
s(I657
I990
tp1527
F529.62873886886803
s(I11
I37
tp1528
F1657.1104186732921
s(I70
I126
tp1529
F2925.0709111353767
s(I785
I898
tp1530
F152.44386018806352
s(I242
I751
tp1531
F282.12405957516523
s(I38
I898
tp1532
F370.23794814943778
s(I96
I202
tp1533
F299.58541411058951
s(I222
I670
tp1534
F4367.1249575609045
s(I151
I812
tp1535
F344.31123001497758
s(I80
I814
tp1536
F838.07221205160886
s(I9
I851
tp1537
F940.22671011136151
s(I46
I247
tp1538
F8300.0701331580203
s(I11
I51
tp1539
F5511.0494840893543
s(I13
I470
tp1540
F1163.5716724350402
s(I270
I337
tp1541
F212.63162248169621
s(I54
I514
tp1542
F430.73410744645531
s(I778
I801
tp1543
F125.77404086133669
s(I350
I515
tp1544
F185.66558854839516
s(I667
I889
tp1545
F154.51897176897171
s(I61
I458
tp1546
F634.5199970269847
s(I7
I71
tp1547
F2183.7746795713711
s(I670
I683
tp1548
F5816.4199406466951
s(I12
I18
tp1549
F4177.5428895352388
s(I31
I246
tp1550
F741.60503728874198
s(I13
I295
tp1551
F9239.90759308001
s(I307
I972
tp1552
F822.10498631473877
s(I70
I280
tp1553
F432.82759246350651
s(I91
I510
tp1554
F225.79395284532572
s(I95
I853
tp1555
F391.07258474536815
s(I40
I105
tp1556
F319.37506270801566
s(I103
I130
tp1557
F1493.7746503121502
s(I47
I461
tp1558
F245.44396811535717
s(I324
I360
tp1559
F1736.1974080002826
s(I340
I647
tp1560
F195.08266851704491
s(I8
I617
tp1561
F475.03314642908896
s(I157
I574
tp1562
F366.07011626731628
s(I235
I751
tp1563
F713.75284190640582
s(I552
I922
tp1564
F235.21854645722703
s(I58
I601
tp1565
F461.08516657103252
s(I136
I392
tp1566
F727.95449567473247
s(I3
I527
tp1567
F1112.0320529772114
s(I756
I855
tp1568
F1032.0885453010656
s(I78
I394
tp1569
F6336.428948866208
s(I64
I442
tp1570
F324.80120958536116
s(I423
I823
tp1571
F184.27540904731777
s(I16
I61
tp1572
F608.5660339602058
s(I145
I148
tp1573
F472.53362844001225
s(I219
I368
tp1574
F276.79081113642678
s(I2
I96
tp1575
F928.48869347277343
s(I170
I826
tp1576
F398.47143700017222
s(I27
I104
tp1577
F241.83679575327236
s(I301
I468
tp1578
F311.92990322107835
s(I217
I266
tp1579
F211.16510430816172
s(I608
I662
tp1580
F200.18933253309243
s(I101
I940
tp1581
F644.65447424176102
s(I10
I550
tp1582
F781.18304198680664
s(I65
I334
tp1583
F7688.2948394578116
s(I30
I118
tp1584
F650.91290436836573
s(I472
I771
tp1585
F111.01776684787519
s(I93
I963
tp1586
F420.1576388086757
s(I61
I250
tp1587
F810.08804994865318
s(I211
I213
tp1588
F431.40639138083395
s(I195
I450
tp1589
F439.12469384743019
s(I127
I466
tp1590
F450.22622722351639
s(I58
I413
tp1591
F4627.4306243424589
s(I25
I204
tp1592
F333.90867408530926
s(I44
I152
tp1593
F768.83870243241518
s(I245
I553
tp1594
F2330.4399081982911
s(I28
I175
tp1595
F909.39205409679971
s(I374
I658
tp1596
F122.06912005588472
s(I657
I857
tp1597
F211.99803069206766
s(I582
I877
tp1598
F182.32436333016824
s(I148
I593
tp1599
F243.36388934336887
s(I3
I206
tp1600
F752.96151996707511
s(I4
I6
tp1601
F3256.4432886736863
s(I48
I136
tp1602
F400.52025498793353
s(I354
I464
tp1603
F280.17327204733789
s(I9
I27
tp1604
F1064.780516785873
s(I428
I731
tp1605
F170.59630164521465
s(I13
I707
tp1606
F897.25770565577272
s(I14
I409
tp1607
F616.13445188227945
s(I514
I563
tp1608
F128.35265738661383
s(I419
I597
tp1609
F784.47747992757741
s(I20
I509
tp1610
F1403.2438308498054
s(I4
I343
tp1611
F746.27146829054266
s(I425
I709
tp1612
F5328.1082631265608
s(I124
I396
tp1613
F5359.0000606353606
s(I141
I501
tp1614
F554.8500491173013
s(I236
I949
tp1615
F798.28590217845897
s(I40
I131
tp1616
F558.66839232140785
s(I114
I323
tp1617
F516.06880064454776
s(I207
I674
tp1618
F569.75661743944318
s(I62
I227
tp1619
F380.66843114345562
s(I82
I664
tp1620
F351.73114751044801
s(I13
I112
tp1621
F1413.2342935095321
s(I126
I459
tp1622
F564.53100924008345
s(I220
I449
tp1623
F122.83379655320387
s(I241
I313
tp1624
F934.166791803769
s(I4
I56
tp1625
F1208.24714383675
s(I5
I182
tp1626
F2654.6364500484697
s(I26
I205
tp1627
F2341.9692612907411
s(I246
I522
tp1628
F152.82217761882004
s(I25
I90
tp1629
F359.93673634618216
s(I107
I561
tp1630
F436.36914565824367
s(I36
I38
tp1631
F1032.9918519971484
s(I2
I114
tp1632
F539.73602011332378
s(I2
I315
tp1633
F663.1043025510279
s(I22
I113
tp1634
F1734.9579474982995
s(I140
I864
tp1635
F233.25069947389565
s(I151
I343
tp1636
F121.51043524228615
s(I281
I492
tp1637
F577.50703620128138
s(I283
I611
tp1638
F163.57507111929294
s(I28
I642
tp1639
F739.32312565329892
s(I107
I379
tp1640
F5118.3849732440576
s(I0
I388
tp1641
F1137.0954107357102
s(I143
I516
tp1642
F626.24766197093027
s(I257
I363
tp1643
F499.81322435120478
s(I51
I425
tp1644
F4914.962787239976
s(I372
I474
tp1645
F376.94428850496899
s(I28
I324
tp1646
F1251.4144750337223
s(I250
I641
tp1647
F3765.8164030044609
s(I144
I841
tp1648
F527.40081050526555
s(I1
I752
tp1649
F935.76833652630421
s(I1
I187
tp1650
F748.78643502461284
s(I644
I910
tp1651
F119.70559177938793
s(I24
I783
tp1652
F380.07284685866085
s(I385
I463
tp1653
F215.31380789801307
s(I7
I848
tp1654
F940.56512518101385
s(I673
I796
tp1655
F119.4872356841061
s(I415
I990
tp1656
F827.20163948963784
s(I15
I325
tp1657
F476.54876066780815
s(I219
I700
tp1658
F150.6314223985448
s(I160
I213
tp1659
F414.88453884003917
s(I93
I155
tp1660
F1655.536467911294
s(I292
I313
tp1661
F1269.7365217251331
s(I152
I168
tp1662
F304.85213581982134
s(I44
I577
tp1663
F528.85068833170021
s(I8
I34
tp1664
F1649.0635095288512
s(I9
I180
tp1665
F751.99820241568364
s(I84
I277
tp1666
F179.56427819840164
s(I49
I224
tp1667
F356.03318924267495
s(I17
I760
tp1668
F802.11433035457856
s(I126
I349
tp1669
F846.13187217253983
s(I517
I788
tp1670
F171.65534228718542
s(I76
I196
tp1671
F1857.4044214457201
s(I3
I316
tp1672
F1049.9556414609954
s(I24
I482
tp1673
F480.016079925675
s(I44
I907
tp1674
F493.5036288027884
s(I198
I335
tp1675
F345.12570186762349
s(I8
I177
tp1676
F431.27694462825139
s(I0
I389
tp1677
F608.19078950121445
s(I176
I237
tp1678
F276.2343057364464
s(I280
I667
tp1679
F221.91709679209677
s(I450
I634
tp1680
F187.05037016573601
s(I199
I853
tp1681
F458.79918645370884
s(I40
I311
tp1682
F389.67678732151728
s(I1
I910
tp1683
F827.12475131682322
s(I38
I150
tp1684
F598.40709961112975
s(I46
I493
tp1685
F305.38639497024144
s(I216
I825
tp1686
F966.6355663884209
s(I84
I581
tp1687
F457.71476625631288
s(I107
I186
tp1688
F501.5131845444198
s(I1
I713
tp1689
F12034.567802715861
s(I1
I188
tp1690
F7975.0586707088914
s(I55
I97
tp1691
F996.85027751831672
s(I55
I556
tp1692
F342.77837089093947
s(I144
I485
tp1693
F294.46358645940035
s(I4
I468
tp1694
F1538.0843982846202
s(I133
I317
tp1695
F157.65259070087259
s(I635
I987
tp1696
F258.97992759349114
s(I48
I241
tp1697
F640.98639171734487
s(I29
I945
tp1698
F15851.817396284237
s(I198
I776
tp1699
F610.08799368210782
s(I14
I645
tp1700
F345.75763614588061
s(I53
I59
tp1701
F504.32064955172666
s(I234
I675
tp1702
F570.07791298695815
s(I93
I863
tp1703
F853.59167720596781
s(I519
I920
tp1704
F173.24417583786649
s(I97
I209
tp1705
F906.50472584482179
s(I118
I132
tp1706
F666.63247613506405
s(I66
I438
tp1707
F488.13958957774577
s(I17
I602
tp1708
F715.08494726564652
s(I17
I429
tp1709
F863.02444437665986
s(I92
I216
tp1710
F3556.1241388267513
s(I81
I136
tp1711
F413.18225636927411
s(I246
I695
tp1712
F196.23907620157618
s(I300
I430
tp1713
F763.52981022061022
s(I31
I644
tp1714
F739.27701367638804
s(I69
I465
tp1715
F3308.2636407435552
s(I105
I936
tp1716
F276.19322478596666
s(I107
I956
tp1717
F4895.2624251023699
s(I199
I263
tp1718
F6100.14419722809
s(I112
I185
tp1719
F240.3400885599759
s(I97
I776
tp1720
F434.78871594683608
s(I24
I424
tp1721
F274.16160684186985
s(I26
I843
tp1722
F575.02601666244971
s(I669
I995
tp1723
F5604.0766310261433
s(I13
I639
tp1724
F10262.602846385735
s(I15
I730
tp1725
F284.53821768577876
s(I236
I469
tp1726
F820.49491348340769
s(I373
I446
tp1727
F147.06784797832543
s(I718
I881
tp1728
F515.17371849166966
s(I19
I649
tp1729
F810.89968825107496
s(I3
I12
tp1730
F3500.5534326363827
s(I257
I606
tp1731
F6398.9886339483446
s(I8
I65
tp1732
F4011.3482730235705
s(I174
I562
tp1733
F993.82874998869625
s(I46
I792
tp1734
F424.31290106746428
s(I19
I164
tp1735
F622.07409814213179
s(I332
I892
tp1736
F372.09164745588964
s(I1
I38
tp1737
F1629.1199255715192
s(I737
I841
tp1738
F156.41514028054706
s(I205
I318
tp1739
F2840.8291996951939
s(I354
I517
tp1740
F264.88266285644613
s(I118
I159
tp1741
F446.73254179166543
s(I135
I219
tp1742
F264.30412493937837
s(I250
I440
tp1743
F204.1850967189612
s(I199
I367
tp1744
F1797.4520700479134
s(I73
I660
tp1745
F737.39765331708668
s(I219
I341
tp1746
F144.48853034650583
s(I203
I872
tp1747
F154.52635107914833
s(I22
I977
tp1748
F528.15626498713607
s(I80
I253
tp1749
F296.19835767497511
s(I189
I437
tp1750
F359.78843044478066
s(I228
I880
tp1751
F203.08691815949885
s(I9
I18
tp1752
F5018.4277653745967
s(I178
I243
tp1753
F402.02027007960407
s(I250
I283
tp1754
F379.08752846814991
s(I183
I582
tp1755
F245.34662187533027
s(I26
I162
tp1756
F1312.2469200011308
s(I58
I147
tp1757
F316.95927466369449
s(I41
I185
tp1758
F719.02216395562903
s(I282
I960
tp1759
F654.21317235051322
s(I172
I290
tp1760
F516.69231734527909
s(I10
I30
tp1761
F984.746451690909
s(I11
I868
tp1762
F700.29295937470533
s(I88
I647
tp1763
F273.28571866966746
s(I72
I705
tp1764
F272.47696251661051
s(I288
I947
tp1765
F2885.5523401632249
s(I113
I632
tp1766
F454.63565740798214
s(I370
I986
tp1767
F255.93561774566743
s(I43
I584
tp1768
F890.94781946763658
s(I409
I865
tp1769
F139.25901552085193
s(I121
I994
tp1770
F214.47013984513978
s(I32
I94
tp1771
F872.64302113947929
s(I1
I63
tp1772
F663.64119283187426
s(I22
I95
tp1773
F1609.86380215894
s(I111
I251
tp1774
F1153.9752712907361
s(I3
I601
tp1775
F1149.1956483746312
s(I5
I357
tp1776
F9467.9710646558888
s(I21
I329
tp1777
F1274.1342809257085
s(I9
I175
tp1778
F1142.945622681963
s(I133
I667
tp1779
F279.27827295364591
s(I175
I831
tp1780
F415.01050012079423
s(I21
I324
tp1781
F879.36634259400637
s(I3
I75
tp1782
F2238.9919743828573
s(I53
I617
tp1783
F188.21216591102487
s(I20
I583
tp1784
F11441.876938080022
s(I2
I86
tp1785
F350.75035752949401
s(I148
I169
tp1786
F503.8379207307907
s(I367
I810
tp1787
F419.68990458535086
s(I82
I926
tp1788
F222.4191194293702
s(I252
I564
tp1789
F223.87690367606749
s(I196
I221
tp1790
F270.77293637537019
s(I281
I995
tp1791
F13322.219029115182
s(I453
I714
tp1792
F282.54562233059022
s(I37
I624
tp1793
F539.04459999265202
s(I58
I154
tp1794
F698.9819952890507
s(I2
I219
tp1795
F698.49071282885097
s(I1
I275
tp1796
F2877.1800566633692
s(I17
I185
tp1797
F1459.3929051539558
s(I1
I135
tp1798
F1219.7755652144294
s(I38
I635
tp1799
F950.1732593687708
s(I261
I733
tp1800
F92.71732595095429
s(I100
I989
tp1801
F278.18399652645581
s(I212
I759
tp1802
F542.37058614370414
s(I100
I164
tp1803
F327.13298487099934
s(I433
I710
tp1804
F191.31704486174291
s(I12
I846
tp1805
F903.84323798652827
s(I698
I759
tp1806
F353.6243317373972
s(I56
I347
tp1807
F539.19126020275382
s(I57
I83
tp1808
F365.57917174499414
s(I80
I92
tp1809
F851.80868554086703
s(I61
I982
tp1810
F373.39901928137232
s(I9
I875
tp1811
F735.64993306719805
s(I47
I167
tp1812
F188.16228285085305
s(I12
I75
tp1813
F1566.0788137088782
s(I462
I477
tp1814
F305.39537869782851
s(I178
I538
tp1815
F234.11814690657374
s(I75
I771
tp1816
F504.74464156861495
s(I58
I761
tp1817
F301.58454586541728
s(I332
I584
tp1818
F176.38127051347342
s(I21
I601
tp1819
F720.77963872627402
s(I133
I676
tp1820
F298.32004382757611
s(I33
I304
tp1821
F550.87951890017541
s(I25
I333
tp1822
F7563.9853599101698
s(I766
I916
tp1823
F874.16257085725738
s(I32
I819
tp1824
F707.61787272392644
s(I11
I485
tp1825
F756.60817326856113
s(I217
I902
tp1826
F188.68459580743195
s(I155
I163
tp1827
F375.20498637901022
s(I244
I316
tp1828
F2046.2932734096382
s(I7
I947
tp1829
F16695.786632285235
s(I136
I188
tp1830
F1165.0194491908173
s(I65
I202
tp1831
F639.74157988152967
s(I104
I955
tp1832
F317.71202680761496
s(I75
I621
tp1833
F345.3666205718244
s(I12
I169
tp1834
F1725.4217427111146
s(I0
I22
tp1835
F2797.6357862275445
s(I3
I99
tp1836
F654.60125455802063
s(I459
I990
tp1837
F367.36553921706383
s(I394
I712
tp1838
F1251.4497984628545
s(I27
I306
tp1839
F1292.2193873345716
s(I173
I303
tp1840
F205.61344674767713
s(I85
I104
tp1841
F471.76599455802813
s(I123
I976
tp1842
F6662.1120366667028
s(I986
I997
tp1843
F157.24128425567042
s(I0
I133
tp1844
F995.51869109329198
s(I71
I991
tp1845
F737.18561467516645
s(I718
I757
tp1846
F231.54314895491149
s(I185
I399
tp1847
F172.01877626495764
s(I61
I410
tp1848
F240.47555418675176
s(I155
I406
tp1849
F312.59913290985747
s(I139
I192
tp1850
F204.95043920114583
s(I31
I381
tp1851
F668.33025965953925
s(I107
I523
tp1852
F444.58289030828041
s(I195
I511
tp1853
F842.73639174683331
s(I238
I339
tp1854
F231.48678307864941
s(I150
I703
tp1855
F302.31122633591133
s(I19
I890
tp1856
F1925.5507841906217
s(I596
I798
tp1857
F219.71388489695374
s(I10
I184
tp1858
F439.98457190164766
s(I11
I193
tp1859
F936.35555033202411
s(I268
I286
tp1860
F334.09228912499037
s(I859
I901
tp1861
F213.17275412399252
s(I18
I168
tp1862
F586.82588134914158
s(I54
I161
tp1863
F1069.5214267247875
s(I130
I132
tp1864
F1502.2925198659693
s(I205
I704
tp1865
F5238.256145582417
s(I117
I726
tp1866
F188.37668839505412
s(I405
I953
tp1867
F263.18378384808454
s(I245
I826
tp1868
F2127.2000178830435
s(I304
I586
tp1869
F358.51486866348097
s(I19
I895
tp1870
F954.38098599555315
s(I13
I46
tp1871
F2770.3162158534078
s(I26
I707
tp1872
F331.83762790718509
s(I14
I761
tp1873
F162.16229261436175
s(I169
I263
tp1874
F4775.9628462840301
s(I316
I470
tp1875
F185.782810189326
s(I3
I104
tp1876
F1193.2122221864608
s(I22
I196
tp1877
F1050.0619569606997
s(I80
I256
tp1878
F375.12599083027021
s(I61
I290
tp1879
F854.92548837043478
s(I84
I562
tp1880
F781.75092003229065
s(I529
I603
tp1881
F212.1868433727328
s(I235
I243
tp1882
F650.42794501474555
s(I181
I408
tp1883
F174.78746056138766
s(I71
I393
tp1884
F418.35308719334301
s(I607
I806
tp1885
F942.72173549893648
s(I42
I958
tp1886
F12118.711510920091
s(I4
I9
tp1887
F3266.6126043797972
s(I45
I568
tp1888
F635.10096235750257
s(I116
I195
tp1889
F219.77688728091982
s(I17
I734
tp1890
F468.1576395787622
s(I136
I385
tp1891
F550.46810177298016
s(I297
I445
tp1892
F330.38207629610139
s(I13
I837
tp1893
F1425.0231123005165
s(I31
I378
tp1894
F634.19421968166751
s(I110
I417
tp1895
F182.37064714613288
s(I129
I230
tp1896
F4757.786085307358
s(I19
I899
tp1897
F765.15936863855677
s(I131
I861
tp1898
F3688.1256290970155
s(I117
I305
tp1899
F263.39949581138222
s(I246
I801
tp1900
F301.6052419399515
s(I374
I384
tp1901
F128.61501164714787
s(I5
I117
tp1902
F1996.0558448087374
s(I51
I95
tp1903
F1582.4548119916226
s(I17
I19
tp1904
F2656.952138270914
s(I127
I200
tp1905
F295.69984487521845
s(I93
I296
tp1906
F801.28277549750715
s(I40
I204
tp1907
F198.27534353393969
s(I60
I151
tp1908
F219.38557839682889
s(I334
I562
tp1909
F1891.4024257568196
s(I561
I767
tp1910
F52.940331455037324
s(I66
I183
tp1911
F529.53526570443989
s(I15
I840
tp1912
F690.96309285828158
s(I37
I41
tp1913
F885.05525135618257
s(I163
I528
tp1914
F219.96976147634038
s(I58
I944
tp1915
F432.26749544495885
s(I37
I764
tp1916
F467.80068698807304
s(I117
I536
tp1917
F326.47873398473689
s(I353
I703
tp1918
F216.79942270399087
s(I320
I833
tp1919
F291.419207407763
s(I173
I289
tp1920
F284.15098590562428
s(I122
I390
tp1921
F1181.2499430518371
s(I12
I302
tp1922
F435.99432396993609
s(I230
I973
tp1923
F968.02415459185943
s(I90
I570
tp1924
F260.85999657442477
s(I0
I147
tp1925
F329.37546978210833
s(I346
I598
tp1926
F188.27499876917392
s(I93
I202
tp1927
F649.22383029766786
s(I58
I92
tp1928
F793.71966264519824
s(I41
I951
tp1929
F623.36433413169311
s(I5
I142
tp1930
F767.82343743520266
s(I281
I315
tp1931
F700.398362895844
s(I66
I492
tp1932
F540.50396086353339
s(I356
I547
tp1933
F157.99823375327884
s(I69
I987
tp1934
F492.89087566025728
s(I381
I549
tp1935
F268.54340723298759
s(I3
I706
tp1936
F15845.075680579317
s(I43
I273
tp1937
F958.44506637451457
s(I150
I535
tp1938
F277.62217396653386
s(I10
I529
tp1939
F737.46069846805619
s(I544
I566
tp1940
F148.40854739515729
s(I104
I214
tp1941
F216.70408970149276
s(I285
I500
tp1942
F138.93483024420661
s(I124
I348
tp1943
F3319.1072621563071
s(I107
I252
tp1944
F665.65270364507023
s(I306
I484
tp1945
F420.32201989000549
s(I268
I422
tp1946
F400.58834929406896
s(I438
I612
tp1947
F214.72031615369724
s(I185
I192
tp1948
F273.17254480283259
s(I2
I534
tp1949
F649.24041058247508
s(I77
I114
tp1950
F568.34974661705826
s(I222
I528
tp1951
F451.42634496788844
s(I136
I827
tp1952
F515.84979697372273
s(I283
I329
tp1953
F443.45585734488714
s(I46
I983
tp1954
F725.43304045679895
s(I216
I351
tp1955
F1857.5707187749181
s(I289
I405
tp1956
F484.43941919815262
s(I1
I227
tp1957
F1339.7887404820522
s(I386
I937
tp1958
F155.45153482499424
s(I22
I214
tp1959
F1032.3089921179819
s(I78
I420
tp1960
F269.1705307734502
s(I26
I157
tp1961
F568.19947082163901
s(I9
I355
tp1962
F292.6290379954682
s(I134
I735
tp1963
F258.91342735889566
s(I748
I965
tp1964
F74.207185788068131
s(I18
I29
tp1965
F2241.512734653722
s(I56
I413
tp1966
F2605.0073160495494
s(I42
I905
tp1967
F611.32282227111023
s(I1
I28
tp1968
F3977.1462728304859
s(I6
I698
tp1969
F985.32916199531132
s(I634
I914
tp1970
F198.74716095719475
s(I46
I75
tp1971
F706.02707248020033
s(I140
I577
tp1972
F496.81331098336238
s(I161
I409
tp1973
F384.28540874022525
s(I126
I149
tp1974
F1352.1102086791755
s(I17
I357
tp1975
F5169.6572221168663
s(I148
I994
tp1976
F379.5204536953762
s(I682
I813
tp1977
F188.48613627738672
s(I627
I881
tp1978
F106.94942528070605
s(I96
I269
tp1979
F314.75940157473599
s(I24
I474
tp1980
F796.02350070085026
s(I560
I631
tp1981
F3656.2000581153325
s(I83
I194
tp1982
F272.56415086003011
s(I1
I547
tp1983
F577.25412439305239
s(I67
I412
tp1984
F286.73311252619123
s(I323
I723
tp1985
F226.90352947705881
s(I14
I436
tp1986
F477.02188693253237
s(I14
I291
tp1987
F388.82946290197935
s(I182
I705
tp1988
F427.14237525769494
s(I718
I823
tp1989
F262.41406194253528
s(I8
I91
tp1990
F1104.5501433441711
s(I524
I777
tp1991
F162.45283366941453
s(I109
I796
tp1992
F259.52834485586334
s(I170
I549
tp1993
F311.33535973432066
s(I248
I776
tp1994
F252.2986614177016
s(I559
I760
tp1995
F168.66743348476902
s(I409
I529
tp1996
F190.83932255000443
s(I339
I998
tp1997
F383.45628186593325
s(I857
I869
tp1998
F1229.611948812777
s(I90
I214
tp1999
F174.7633355678914
s(I212
I814
tp2000
F1440.8325046889961
s(I222
I284
tp2001
F523.139218942654
s(I80
I501
tp2002
F553.54894167400994
s(I48
I787
tp2003
F249.27291877798837
s(I220
I507
tp2004
F97.374170101662855
s(I8
I791
tp2005
F544.92476919753301
s(I296
I782
tp2006
F510.9325168564535
s(I62
I308
tp2007
F219.27660894474636
s(I636
I905
tp2008
F177.23902177114246
s(I178
I817
tp2009
F234.86986979026068
s(I430
I678
tp2010
F97.0900434664089
s(I125
I807
tp2011
F269.88679268347812
s(I221
I770
tp2012
F299.94378723128722
s(I130
I652
tp2013
F569.90785413797801
s(I828
I973
tp2014
F217.31427794328013
s(I136
I858
tp2015
F383.9058169466872
s(I375
I978
tp2016
F157.38309806897129
s(I14
I241
tp2017
F735.49187316519237
s(I14
I322
tp2018
F359.09835676246223
s(I107
I900
tp2019
F629.40108619236753
s(I199
I794
tp2020
F351.03065711980986
s(I458
I778
tp2021
F257.67336142381509
s(I220
I701
tp2022
F122.86911397750235
s(I3
I55
tp2023
F1244.192324737485
s(I576
I787
tp2024
F216.79647873218855
s(I170
I556
tp2025
F300.64278960858445
s(I118
I293
tp2026
F471.36499773973634
s(I172
I645
tp2027
F243.32824980787845
s(I31
I56
tp2028
F877.87298751219657
s(I95
I369
tp2029
F351.54955752282206
s(I199
I683
tp2030
F1039.126719080642
s(I2
I229
tp2031
F990.66604671412017
s(I3
I68
tp2032
F1818.9003739908858
s(I22
I145
tp2033
F1538.7593982344658
s(I280
I948
tp2034
F326.10623015615289
s(I81
I498
tp2035
F859.52299220884936
s(I13
I921
tp2036
F1664.9036314021287
s(I99
I769
tp2037
F341.96368758709355
s(I306
I411
tp2038
F400.24784847934001
s(I459
I832
tp2039
F47.414066871687801
s(I207
I939
tp2040
F890.22575827399373
s(I595
I834
tp2041
F130.93527907277908
s(I101
I181
tp2042
F671.22777234039643
s(I28
I672
tp2043
F1264.7330254099913
s(I430
I681
tp2044
F211.49946694207807
s(I149
I983
tp2045
F226.76521148270368
s(I643
I891
tp2046
F268.75487695698826
s(I402
I522
tp2047
F234.17929171489402
s(I2
I7
tp2048
F1988.1256560283357
s(I229
I398
tp2049
F238.88030402477844
s(I41
I96
tp2050
F652.95822066228391
s(I81
I518
tp2051
F1339.9301775253418
s(I300
I800
tp2052
F13652.924328048948
s(I47
I164
tp2053
F204.41523540030784
s(I85
I603
tp2054
F467.67819855912967
s(I139
I354
tp2055
F259.46219429724056
s(I470
I656
tp2056
F246.47848519344191
s(I732
I774
tp2057
F266.74657717320139
s(I1
I325
tp2058
F768.59522993671726
s(I366
I609
tp2059
F119.07544349700107
s(I58
I286
tp2060
F816.36021217715393
s(I242
I531
tp2061
F174.42666944196048
s(I591
I786
tp2062
F147.88391510588582
s(I111
I899
tp2063
F749.18084125908547
s(I6
I27
tp2064
F712.81325152121315
s(I5
I532
tp2065
F15282.819806220519
s(I375
I749
tp2066
F208.7632885756818
s(I232
I517
tp2067
F531.74562605341362
s(I287
I380
tp2068
F507.59339541147529
s(I72
I174
tp2069
F2208.2872744368501
s(I604
I671
tp2070
F5603.7754916840504
s(I36
I956
tp2071
F4707.2846924665855
s(I181
I762
tp2072
F222.45325684763455
s(I476
I766
tp2073
F1174.5046677281671
s(I42
I327
tp2074
F496.74856463782191
s(I77
I569
tp2075
F484.01651507088684
s(I912
I922
tp2076
F340.52362381652421
s(I191
I561
tp2077
F183.97585584711842
s(I15
I989
tp2078
F572.20346841167475
s(I238
I288
tp2079
F201.34378687766309
s(I218
I938
tp2080
F654.60047732354667
s(I20
I965
tp2081
F467.77122877122883
s(I292
I546
tp2082
F186.50726817807342
s(I21
I108
tp2083
F706.15424475399618
s(I649
I684
tp2084
F132.60209779373614
s(I31
I359
tp2085
F817.83421647708246
s(I9
I234
tp2086
F849.42398337325142
s(I69
I959
tp2087
F591.77938057833649
s(I433
I614
tp2088
F215.42772446934535
s(I354
I649
tp2089
F243.22014650192747
s(I474
I480
tp2090
F205.62179733365801
s(I19
I58
tp2091
F1326.930745381356
s(I37
I423
tp2092
F437.83236423103364
s(I437
I770
tp2093
F289.3892453951276
s(I266
I565
tp2094
F355.39975255222924
s(I25
I794
tp2095
F353.00822005880093
s(I157
I674
tp2096
F355.74559536163156
s(I379
I421
tp2097
F2025.1276593569009
s(I237
I959
tp2098
F299.73157714605082
s(I93
I261
tp2099
F593.91020665080509
s(I76
I451
tp2100
F1226.6723267177254
s(I811
I880
tp2101
F153.82346864604929
s(I426
I709
tp2102
F4536.0073720125829
s(I390
I999
tp2103
F183.53106112391094
s(I9
I13
tp2104
F5918.4467556707796
s(I190
I641
tp2105
F6979.6869280235805
s(I0
I199
tp2106
F2165.9837887166173
s(I42
I588
tp2107
F500.43278843703575
s(I293
I590
tp2108
F479.1586072894163
s(I188
I238
tp2109
F952.15298955359287
s(I5
I992
tp2110
F1059.3532269649365
s(I45
I819
tp2111
F597.00669374450138
s(I232
I411
tp2112
F404.88618219374905
s(I488
I805
tp2113
F193.97184429959012
s(I329
I461
tp2114
F419.98020895641139
s(I3
I195
tp2115
F1901.846516643204
s(I207
I953
tp2116
F857.68981527025096
s(I2
I27
tp2117
F608.68496527524212
s(I124
I208
tp2118
F803.60546444793056
s(I361
I828
tp2119
F182.36593219604131
s(I85
I109
tp2120
F461.43475363815128
s(I0
I432
tp2121
F881.27591432188535
s(I145
I630
tp2122
F166.19760366066811
s(I1
I967
tp2123
F636.80774730986241
s(I78
I233
tp2124
F464.02575995548943
s(I544
I829
tp2125
F211.76277274497087
s(I85
I293
tp2126
F541.68688665746913
s(I711
I835
tp2127
F162.51552124909122
s(I10
I436
tp2128
F769.11072674101854
s(I87
I400
tp2129
F1029.538943303696
s(I236
I576
tp2130
F635.93110384397824
s(I3
I42
tp2131
F5441.0132895657953
s(I168
I572
tp2132
F108.83274554522845
s(I173
I795
tp2133
F261.65662084460206
s(I9
I970
tp2134
F1542.0866026290894
s(I46
I140
tp2135
F753.24066874718528
s(I22
I126
tp2136
F4799.0570184866847
s(I32
I37
tp2137
F1691.9946138711755
s(I107
I110
tp2138
F1533.4667027164587
s(I107
I693
tp2139
F501.98408268659915
s(I152
I265
tp2140
F387.19025978993187
s(I13
I348
tp2141
F12946.322236021409
s(I579
I953
tp2142
F1396.0918443435824
s(I84
I950
tp2143
F352.52413847140014
s(I11
I510
tp2144
F730.95854450598983
s(I424
I972
tp2145
F554.62087115415284
s(I36
I49
tp2146
F1178.6345506118728
s(I1
I113
tp2147
F2086.7694898431059
s(I590
I941
tp2148
F493.76116521416878
s(I113
I287
tp2149
F1698.7954297734302
s(I257
I725
tp2150
F232.25710827027942
s(I22
I100
tp2151
F1781.2592461271643
s(I388
I663
tp2152
F369.09621482492997
s(I52
I176
tp2153
F317.15775012550591
s(I82
I380
tp2154
F365.41444536617456
s(I45
I264
tp2155
F220.801057729185
s(I31
I254
tp2156
F1373.7587286786124
s(I93
I603
tp2157
F686.91665549555489
s(I273
I676
tp2158
F204.02710443151616
s(I93
I486
tp2159
F763.07296806516592
s(I60
I613
tp2160
F331.4625602429806
s(I40
I323
tp2161
F900.22396859962771
s(I477
I839
tp2162
F175.06476412786594
s(I76
I747
tp2163
F806.7352658852376
s(I7
I257
tp2164
F1733.0288732081833
s(I345
I908
tp2165
F621.22668178212689
s(I197
I750
tp2166
F145.78204756792243
s(I144
I626
tp2167
F506.58455478269826
s(I70
I242
tp2168
F730.51205559145103
s(I437
I714
tp2169
F200.04872037098193
s(I390
I775
tp2170
F207.43621182889831
s(I597
I878
tp2171
F179.10692346736704
s(I7
I315
tp2172
F810.61161395140323
s(I17
I997
tp2173
F571.86229360271398
s(I34
I989
tp2174
F316.62580105636539
s(I1
I931
tp2175
F789.17625708395633
s(I236
I257
tp2176
F1939.7246837663756
s(I40
I44
tp2177
F264.60569874856714
s(I77
I334
tp2178
F8217.4990104687859
s(I77
I548
tp2179
F437.53051701749877
s(I76
I512
tp2180
F3522.8112485747884
s(I724
I971
tp2181
F207.92519552293979
s(I29
I86
tp2182
F715.03113272041401
s(I249
I658
tp2183
F372.41397001741859
s(I144
I550
tp2184
F436.64002159767716
s(I17
I441
tp2185
F562.6503067192541
s(I36
I56
tp2186
F897.56920498975819
s(I218
I903
tp2187
F6341.668137285983
s(I874
I909
tp2188
F141.54902242549559
s(I668
I966
tp2189
F317.81302735665292
s(I5
I680
tp2190
F766.78001120877207
s(I6
I302
tp2191
F642.64837249940615
s(I9
I26
tp2192
F1883.625235734605
s(I926
I961
tp2193
F153.75981392448557
s(I116
I340
tp2194
F121.31831711645152
s(I372
I627
tp2195
F237.11135902501169
s(I70
I267
tp2196
F679.78865792802299
s(I199
I283
tp2197
F486.57590719661027
s(I92
I503
tp2198
F200.30787865260356
s(I38
I159
tp2199
F435.65107561977641
s(I754
I932
tp2200
F351.2290106484902
s(I259
I606
tp2201
F4023.0504980453516
s(I22
I494
tp2202
F583.03089506923698
s(I353
I773
tp2203
F293.06909197606865
s(I465
I888
tp2204
F1305.1727003708372
s(I249
I724
tp2205
F641.91715932355032
s(I70
I524
tp2206
F559.32929247310631
s(I415
I670
tp2207
F3937.4639229874338
s(I164
I705
tp2208
F206.86572127850334
s(I25
I43
tp2209
F2806.5379533961732
s(I6
I7
tp2210
F3839.6173869730105
s(I28
I48
tp2211
F1212.4861481388548
s(I526
I819
tp2212
F166.5103319194977
s(I15
I383
tp2213
F468.62011505187445
s(I143
I353
tp2214
F571.09220914296395
s(I44
I365
tp2215
F465.20110790857359
s(I151
I481
tp2216
F314.33090736189564
s(I190
I243
tp2217
F430.85910800105842
s(I10
I610
tp2218
F614.34178994561591
s(I12
I502
tp2219
F798.3458475844144
s(I470
I926
tp2220
F187.86923458282502
s(I163
I303
tp2221
F158.47490167042929
s(I129
I633
tp2222
F743.3023776479281
s(I725
I946
tp2223
F197.44040385278541
s(I5
I198
tp2224
F2489.5351038907452
s(I119
I637
tp2225
F408.36056946002611
s(I84
I811
tp2226
F184.22518365371084
s(I32
I785
tp2227
F466.41603664147254
s(I251
I391
tp2228
F462.33975795035497
s(I472
I867
tp2229
F84.309658070687462
s(I141
I807
tp2230
F402.36070366190194
s(I110
I815
tp2231
F353.14948494873948
s(I218
I708
tp2232
F327.06702570489568
s(I76
I400
tp2233
F932.2185944626624
s(I41
I69
tp2234
F1866.9883947667608
s(I423
I968
tp2235
F335.29604083986879
s(I463
I687
tp2236
F241.40155778257494
s(I63
I874
tp2237
F333.03056862008236
s(I372
I912
tp2238
F239.93102256927293
s(I191
I380
tp2239
F222.05006010458942
s(I13
I23
tp2240
F1600.7773960971892
s(I35
I547
tp2241
F102.796169436981
s(I236
I818
tp2242
F1360.8429004782022
s(I975
I993
tp2243
F421.24313071557981
s(I9
I298
tp2244
F497.56496707005385
s(I246
I571
tp2245
F134.52618904863104
s(I37
I354
tp2246
F910.8832918191473
s(I4
I32
tp2247
F4560.4998168592565
s(I25
I221
tp2248
F619.89580268493455
s(I225
I888
tp2249
F205.22821175661053
s(I43
I222
tp2250
F1539.7974527612448
s(I467
I851
tp2251
F202.06379991757348
s(I29
I40
tp2252
F1148.3925023426611
s(I136
I302
tp2253
F195.04185999783147
s(I747
I799
tp2254
F178.33972235981156
s(I74
I249
tp2255
F1506.0996891115337
s(I75
I253
tp2256
F202.50467765183592
s(I256
I817
tp2257
F233.81816436280667
s(I5
I666
tp2258
F3026.3598227957882
s(I6
I280
tp2259
F1068.437350126921
s(I515
I775
tp2260
F326.71677393302912
s(I13
I756
tp2261
F1014.2225374613836
s(I31
I288
tp2262
F1276.7687300945283
s(I9
I888
tp2263
F1391.3914091160464
s(I71
I137
tp2264
F342.91352040011219
s(I75
I657
tp2265
F312.89739894481886
s(I13
I24
tp2266
F2637.9704419760092
s(I62
I596
tp2267
F218.8911061245426
s(I11
I873
tp2268
F992.31934418792298
s(I16
I662
tp2269
F682.56046953085843
s(I256
I746
tp2270
F163.44548174260316
s(I3
I6
tp2271
F5375.8938231686798
s(I20
I481
tp2272
F1218.7854594417968
s(I89
I175
tp2273
F660.41308874348545
s(I392
I784
tp2274
F357.32427871470406
s(I375
I711
tp2275
F165.73304203047581
s(I16
I17
tp2276
F2126.5019631215841
s(I72
I248
tp2277
F192.20323208677885
s(I1
I44
tp2278
F1258.9426796128239
s(I3
I151
tp2279
F1059.3863008788906
s(I370
I453
tp2280
F504.31839854971616
s(I461
I591
tp2281
F113.38745101929018
s(I5
I370
tp2282
F2292.1968452936644
s(I10
I761
tp2283
F306.8971872488699
s(I101
I371
tp2284
F368.48006184486331
s(I301
I422
tp2285
F427.52372217231101
s(I321
I933
tp2286
F422.08453766643618
s(I13
I668
tp2287
F2377.0167238746735
s(I198
I664
tp2288
F446.47732487466567
s(I489
I548
tp2289
F193.03236623789351
s(I199
I523
tp2290
F335.52271289201917
s(I37
I823
tp2291
F448.91132686233919
s(I5
I200
tp2292
F848.97076253895659
s(I26
I79
tp2293
F389.90552694972075
s(I135
I803
tp2294
F200.05157871311977
s(I282
I501
tp2295
F965.28003059954597
s(I104
I141
tp2296
F611.43184866758008
s(I892
I976
tp2297
F3255.5463687408005
s(I894
I980
tp2298
F226.80581966041689
s(I91
I466
tp2299
F421.44718429661521
s(I166
I262
tp2300
F299.13026053011208
s(I148
I478
tp2301
F556.72638117113001
s(I57
I716
tp2302
F565.45082551719133
s(I258
I362
tp2303
F250.43419219683713
s(I6
I89
tp2304
F2316.734160468518
s(I271
I374
tp2305
F133.32793658348257
s(I66
I89
tp2306
F1307.4826286933794
s(I334
I932
tp2307
F1299.3366048898229
s(I620
I938
tp2308
F379.63316000714656
s(I68
I512
tp2309
F4292.1893072263265
s(I14
I738
tp2310
F332.77477843462759
s(I608
I802
tp2311
F160.72094137589289
s(I402
I746
tp2312
F140.71515734500673
s(I3
I15
tp2313
F2721.4851114196667
s(I204
I239
tp2314
F107.6444285733278
s(I83
I902
tp2315
F257.01673462343251
s(I382
I971
tp2316
F178.14756324457204
s(I12
I268
tp2317
F878.33301415383607
s(I13
I410
tp2318
F856.19654701794821
s(I415
I518
tp2319
F2365.5931303216003
s(I201
I906
tp2320
F194.16443292275761
s(I473
I685
tp2321
F261.92236952785117
s(I4
I22
tp2322
F3112.967154447027
s(I8
I668
tp2323
F1677.1292717264866
s(I118
I156
tp2324
F550.05077298875722
s(I134
I657
tp2325
F209.31550567683229
s(I45
I173
tp2326
F372.12779278911444
s(I144
I913
tp2327
F4090.6631084607566
s(I110
I849
tp2328
F359.0793330336673
s(I15
I17
tp2329
F2882.0508598015599
s(I556
I978
tp2330
F172.9701422760246
s(I24
I497
tp2331
F463.29365186832462
s(I668
I810
tp2332
F505.76136018733524
s(I63
I816
tp2333
F253.01814641847466
s(I611
I754
tp2334
F29.0512911082171
s(I861
I941
tp2335
F1644.1548421289356
s(I56
I119
tp2336
F229.45064645520796
s(I17
I451
tp2337
F1134.0902007791776
s(I38
I332
tp2338
F638.66404413393241
s(I132
I180
tp2339
F361.05291888619615
s(I26
I268
tp2340
F459.35915909323421
s(I155
I160
tp2341
F471.18263751855068
s(I48
I422
tp2342
F463.81261297705953
s(I208
I296
tp2343
F267.98673758130121
s(I13
I513
tp2344
F655.60054836496352
s(I145
I394
tp2345
F5404.2133926947899
s(I517
I620
tp2346
F283.45035187660397
s(I3
I803
tp2347
F797.34072075202437
s(I58
I245
tp2348
F6393.1768334535809
s(I85
I101
tp2349
F1254.6737712010136
s(I417
I778
tp2350
F274.87129038857563
s(I3
I923
tp2351
F1642.7839043827737
s(I608
I611
tp2352
F97.396004504035716
s(I91
I201
tp2353
F355.25506981241443
s(I9
I174
tp2354
F8740.7154379729236
s(I428
I544
tp2355
F152.67983865057832
s(I270
I722
tp2356
F186.3619510023139
s(I15
I448
tp2357
F1359.2912493902104
s(I5
I58
tp2358
F3029.7937139744968
s(I338
I594
tp2359
F345.20343224278156
s(I135
I476
tp2360
F429.36380276449438
s(I156
I186
tp2361
F194.08961262988552
s(I302
I329
tp2362
F263.22389990528654
s(I15
I698
tp2363
F590.81305982375625
s(I87
I793
tp2364
F984.77498186478783
s(I0
I97
tp2365
F2559.5028930649482
s(I1
I277
tp2366
F944.98998556312517
s(I370
I903
tp2367
F5895.9022703228511
s(I93
I903
tp2368
F12442.331172215292
s(I3
I419
tp2369
F16293.161117148169
s(I339
I831
tp2370
F227.28256390839692
s(I406
I507
tp2371
F101.16924698485049
s(I100
I306
tp2372
F1142.6292090424708
s(I209
I544
tp2373
F440.91004490313293
s(I329
I671
tp2374
F6694.9462133755933
s(I28
I425
tp2375
F11213.716485195471
s(I271
I559
tp2376
F133.39197625267144
s(I125
I833
tp2377
F317.50884998100247
s(I105
I155
tp2378
F407.19902576768442
s(I20
I211
tp2379
F1155.9788460165325
s(I295
I913
tp2380
F1559.0901622545423
s(I95
I387
tp2381
F499.36082970863441
s(I28
I85
tp2382
F1940.7056203249888
s(I391
I532
tp2383
F1064.9063879149462
s(I216
I702
tp2384
F538.71535523421164
s(I235
I689
tp2385
F788.83190485600153
s(I91
I283
tp2386
F361.39418810937246
s(I182
I525
tp2387
F6718.284053379276
s(I1
I55
tp2388
F949.7740125394713
s(I517
I998
tp2389
F157.66156618616571
s(I774
I833
tp2390
F100.11779027874843
s(I7
I121
tp2391
F819.37466239634409
s(I154
I991
tp2392
F253.00219977113321
s(I249
I365
tp2393
F441.47533754549784
s(I111
I349
tp2394
F604.09817623913204
s(I31
I824
tp2395
F544.32371300461068
s(I252
I443
tp2396
F75.116994116994135
s(I198
I342
tp2397
F2687.9383414819736
s(I58
I98
tp2398
F585.8171120415459
s(I53
I625
tp2399
F338.47396761691635
s(I129
I606
tp2400
F9484.8125282209676
s(I701
I848
tp2401
F109.62674080996682
s(I29
I870
tp2402
F471.02149899166193
s(I173
I215
tp2403
F238.83944431662513
s(I235
I991
tp2404
F755.15843743388223
s(I126
I201
tp2405
F504.63690060178453
s(I37
I45
tp2406
F570.63054728493069
s(I38
I181
tp2407
F590.43752633657755
s(I93
I587
tp2408
F905.53870558794665
s(I5
I436
tp2409
F1358.2030277290364
s(I47
I781
tp2410
F259.04977499151454
s(I7
I746
tp2411
F501.14976204756539
s(I13
I52
tp2412
F1304.5363037016461
s(I311
I952
tp2413
F175.78456164566612
s(I127
I737
tp2414
F691.05700769134057
s(I204
I788
tp2415
F89.364514404795742
s(I4
I457
tp2416
F808.54943746698223
s(I228
I520
tp2417
F133.42394917317515
s(I49
I861
tp2418
F10255.17006286279
s(I301
I655
tp2419
F479.44793077661706
s(I3
I91
tp2420
F1917.1192174372416
s(I36
I557
tp2421
F548.26604726074572
s(I164
I634
tp2422
F320.92628168785723
s(I1
I8
tp2423
F3915.7752321797248
s(I274
I486
tp2424
F191.38181632929027
s(I25
I335
tp2425
F407.30209413682257
s(I71
I237
tp2426
F675.54761787412656
s(I9
I40
tp2427
F1003.4553455872903
s(I195
I293
tp2428
F354.13242935349376
s(I13
I278
tp2429
F906.74489152952924
s(I680
I728
tp2430
F199.05393482384173
s(I71
I544
tp2431
F443.75260148392817
s(I2
I41
tp2432
F1276.3321607754938
s(I367
I995
tp2433
F7059.6536597238764
s(I208
I355
tp2434
F184.42853333307198
s(I132
I248
tp2435
F284.72296968945358
s(I9
I406
tp2436
F891.07862062968047
s(I77
I210
tp2437
F522.96374738437464
s(I62
I829
tp2438
F555.52621094240271
s(I516
I686
tp2439
F2717.0352311152283
s(I196
I954
tp2440
F158.33989727861226
s(I286
I497
tp2441
F128.56150105484471
s(I92
I452
tp2442
F650.8103238800519
s(I0
I127
tp2443
F1587.9425228311029
s(I20
I114
tp2444
F677.25852468340281
s(I4
I289
tp2445
F993.35200931464942
s(I78
I296
tp2446
F477.76512958352339
s(I6
I69
tp2447
F3834.3138398260071
s(I65
I671
tp2448
F12974.802761084202
s(I28
I447
tp2449
F556.99505061147045
s(I85
I143
tp2450
F1075.1329040225144
s(I342
I365
tp2451
F642.67696026933277
s(I576
I888
tp2452
F241.72306178373094
s(I0
I595
tp2453
F845.45306607219743
s(I592
I648
tp2454
F91.24025582593444
s(I3
I107
tp2455
F5254.2367979216287
s(I22
I197
tp2456
F452.09624126088812
s(I347
I363
tp2457
F251.07816730243201
s(I353
I677
tp2458
F208.46867925356293
s(I64
I560
tp2459
F542.43726270962532
s(I69
I308
tp2460
F408.11231427643099
s(I159
I163
tp2461
F253.87242170535322
s(I341
I627
tp2462
F300.28006316232154
s(I70
I161
tp2463
F1719.4064365421582
s(I240
I652
tp2464
F222.3040036256115
s(I4
I10
tp2465
F1743.6298779609094
s(I100
I260
tp2466
F229.81780630407641
s(I16
I257
tp2467
F929.97197183323919
s(I305
I960
tp2468
F185.61536319946831
s(I164
I496
tp2469
F111.23544751990622
s(I19
I24
tp2470
F796.97291607961495
s(I22
I39
tp2471
F1952.5794769192917
s(I463
I745
tp2472
F264.89024668617503
s(I597
I689
tp2473
F263.81967023162639
s(I29
I143
tp2474
F1454.3401304919403
s(I286
I807
tp2475
F259.26281687951519
s(I107
I333
tp2476
F6507.4988423088907
s(I15
I76
tp2477
F5227.888082957088
s(I117
I423
tp2478
F532.41674399094188
s(I12
I722
tp2479
F731.42093308999722
s(I23
I28
tp2480
F1223.6928163173097
s(I575
I595
tp2481
F1788.9498842305734
s(I7
I728
tp2482
F646.13842936551237
s(I28
I867
tp2483
F826.44187133917444
s(I54
I64
tp2484
F402.69820672131436
s(I487
I702
tp2485
F210.76175838549062
s(I144
I352
tp2486
F802.48012892877694
s(I5
I101
tp2487
F3315.5258596918302
s(I176
I972
tp2488
F270.7078408208439
s(I7
I930
tp2489
F806.55319759509507
s(I474
I516
tp2490
F472.67045943685264
s(I162
I412
tp2491
F440.01528664305471
s(I143
I226
tp2492
F422.99632606735622
s(I129
I560
tp2493
F558.71378466473436
s(I129
I487
tp2494
F578.90233519775688
s(I77
I876
tp2495
F565.3097331124867
s(I6
I350
tp2496
F971.96272027904558
s(I173
I177
tp2497
F152.05318457902706
s(I104
I755
tp2498
F354.48649878718692
s(I251
I939
tp2499
F338.82622669409903
s(I430
I661
tp2500
F148.09817198297495
s(I32
I318
tp2501
F13077.504458211937
s(I45
I569
tp2502
F490.63132688781764
s(I458
I950
tp2503
F248.83252858252862
s(I97
I948
tp2504
F552.68760041597602
s(I5
I30
tp2505
F1470.0485129985341
s(I100
I327
tp2506
F273.17514200787514
s(I64
I981
tp2507
F5250.4441951823301
s(I156
I158
tp2508
F269.00155303352972
s(I374
I589
tp2509
F148.04604179496394
s(I32
I404
tp2510
F403.35166129725621
s(I34
I53
tp2511
F415.0370860026506
s(I177
I376
tp2512
F200.8760810253178
s(I88
I835
tp2513
F204.05482288459373
s(I37
I216
tp2514
F5039.485510875108
s(I241
I415
tp2515
F3641.5579858462061
s(I76
I101
tp2516
F2476.1442128555223
s(I39
I958
tp2517
F8923.1575318350442
s(I6
I55
tp2518
F864.21049718557242
s(I462
I661
tp2519
F311.24275165751681
s(I101
I123
tp2520
F1306.3636823318409
s(I25
I494
tp2521
F369.49505220277501
s(I14
I151
tp2522
F246.5852661900019
s(I213
I284
tp2523
F363.93517286434189
s(I326
I627
tp2524
F314.64513475741416
s(I601
I650
tp2525
F218.17241190617966
s(I3
I89
tp2526
F2900.7747277576354
s(I683
I804
tp2527
F407.99715759574713
s(I43
I62
tp2528
F1131.8448562567285
s(I80
I836
tp2529
F500.35330174939861
s(I96
I706
tp2530
F1906.4120993468052
s(I65
I77
tp2531
F1756.1592053977975
s(I304
I456
tp2532
F436.62856779776024
s(I15
I444
tp2533
F612.39941387361932
s(I22
I70
tp2534
F3605.2728032032655
s(I118
I334
tp2535
F5020.7122668597849
s(I376
I458
tp2536
F214.64729895147849
s(I85
I694
tp2537
F508.85751242651401
s(I182
I855
tp2538
F2321.7528316736816
s(I57
I292
tp2539
F367.94322230260894
s(I259
I631
tp2540
F3055.3070607974805
s(I83
I197
tp2541
F152.14121297938979
s(I46
I620
tp2542
F383.88063442109245
s(I17
I295
tp2543
F5600.5391223880952
s(I207
I634
tp2544
F847.4676297871514
s(I36
I402
tp2545
F510.8010499355243
s(I3
I49
tp2546
F2908.1184504722355
s(I3
I388
tp2547
F2827.1462774313795
s(I132
I158
tp2548
F303.55558793058788
s(I4
I342
tp2549
F9175.0340198231388
s(I372
I983
tp2550
F205.61753651629482
s(I111
I245
tp2551
F4376.7416842441335
s(I68
I166
tp2552
F327.46929992639286
s(I198
I395
tp2553
F138.11530613515779
s(I143
I318
tp2554
F6705.3715014973504
s(I382
I450
tp2555
F118.71318163215567
s(I16
I64
tp2556
F1237.4426126796375
s(I4
I539
tp2557
F917.97342401543926
s(I3
I533
tp2558
F1176.0936830606511
s(I22
I275
tp2559
F1643.3968200621791
s(I136
I145
tp2560
F388.21324598058595
s(I6
I441
tp2561
F756.30279990749693
s(I13
I397
tp2562
F1103.5073145072672
s(I11
I14
tp2563
F1924.8109452623003
s(I49
I215
tp2564
F495.12343540534448
s(I175
I883
tp2565
F627.76241953541091
s(I162
I430
tp2566
F535.5994127926042
s(I163
I260
tp2567
F122.97408018804089
s(I71
I631
tp2568
F8815.1065781328998
s(I51
I563
tp2569
F661.05967827290385
s(I41
I928
tp2570
F306.94511503038257
s(I266
I950
tp2571
F193.68976127546102
s(I227
I909
tp2572
F350.79734616459479
s(I212
I386
tp2573
F1392.3164369173082
s(I12
I103
tp2574
F1744.2641176986951
s(I270
I649
tp2575
F126.37030821249913
s(I127
I273
tp2576
F550.20893077470612
s(I109
I774
tp2577
F355.77734217968828
s(I502
I690
tp2578
F1364.279621483392
s(I51
I478
tp2579
F885.79294364284976
s(I170
I666
tp2580
F399.64145929369778
s(I214
I663
tp2581
F233.58840456391698
s(I69
I861
tp2582
F9556.9230660511166
s(I286
I493
tp2583
F191.44129720801294
s(I161
I223
tp2584
F276.82381534260719
s(I343
I644
tp2585
F242.48607404722148
s(I306
I800
tp2586
F7035.9573824173558
s(I552
I800
tp2587
F6195.2186346973058
s(I330
I651
tp2588
F264.26188413737128
s(I3
I54
tp2589
F3085.2221243951658
s(I8
I206
tp2590
F623.73617620357345
s(I6
I33
tp2591
F459.8166357111341
s(I279
I584
tp2592
F721.73137782550543
s(I214
I659
tp2593
F255.80622264629193
s(I343
I974
tp2594
F397.830010586252
s(I319
I340
tp2595
F145.73661678056615
s(I452
I473
tp2596
F384.58212570938468
s(I107
I559
tp2597
F533.62444488655274
s(I365
I702
tp2598
F274.15459554230404
s(I114
I232
tp2599
F458.88996101300518
s(I313
I995
tp2600
F8034.4251411948799
s(I26
I563
tp2601
F353.09048641205277
s(I463
I538
tp2602
F233.80632647954991
s(I174
I619
tp2603
F506.02928127375128
s(I54
I981
tp2604
F9359.8506684869826
s(I389
I887
tp2605
F199.03726519142339
s(I30
I149
tp2606
F691.24951240015832
s(I109
I697
tp2607
F426.92156648276182
s(I4
I657
tp2608
F998.19384934862887
s(I5
I49
tp2609
F2761.3852846973009
s(I78
I550
tp2610
F485.4899778396055
s(I26
I31
tp2611
F1627.7921601436544
s(I124
I359
tp2612
F705.54338545391045
s(I127
I173
tp2613
F395.09245688938404
s(I48
I597
tp2614
F507.36478460066371
s(I396
I692
tp2615
F963.74602675695724
s(I126
I132
tp2616
F1489.2902703491031
s(I718
I919
tp2617
F214.80942374254391
s(I129
I193
tp2618
F422.83373733469568
s(I122
I612
tp2619
F458.81396859346108
s(I5
I9
tp2620
F4447.7148431818232
s(I374
I493
tp2621
F131.68573449051323
s(I31
I580
tp2622
F360.44706552994182
s(I89
I371
tp2623
F421.63405930254254
s(I73
I489
tp2624
F488.56672955241476
s(I1
I324
tp2625
F1387.2686789503236
s(I20
I29
tp2626
F3889.8012755183486
s(I21
I137
tp2627
F497.60690814162137
s(I168
I435
tp2628
F146.94690934280715
s(I665
I923
tp2629
F280.66948383952518
s(I25
I897
tp2630
F355.72549350367024
s(I7
I426
tp2631
F1243.9340567303107
s(I65
I167
tp2632
F690.79616578519756
s(I9
I14
tp2633
F920.37460463684533
s(I107
I115
tp2634
F767.16124364054997
s(I1
I514
tp2635
F863.36564438892367
s(I625
I668
tp2636
F362.57156805372938
s(I4
I521
tp2637
F853.56213735769302
s(I114
I684
tp2638
F401.49629104786516
s(I5
I299
tp2639
F974.58109812757891
s(I411
I435
tp2640
F210.31165040893799
s(I324
I337
tp2641
F198.41208978825318
s(I15
I395
tp2642
F352.54704273813616
s(I171
I879
tp2643
F4661.0600676496106
s(I101
I738
tp2644
F265.383011259081
s(I12
I21
tp2645
F3497.8559491224191
s(I66
I74
tp2646
F1159.0664851004685
s(I90
I910
tp2647
F154.45099641547012
s(I227
I496
tp2648
F244.92033942483272
s(I71
I175
tp2649
F485.56272530389805
s(I6
I563
tp2650
F748.29030095513099
s(I749
I954
tp2651
F126.01994743302789
s(I224
I728
tp2652
F177.93954185362855
s(I151
I584
tp2653
F572.91893176540816
s(I192
I433
tp2654
F287.85841456105783
s(I156
I226
tp2655
F216.81053577013176
s(I249
I704
tp2656
F11710.973211018312
s(I51
I793
tp2657
F807.16260303401998
s(I161
I233
tp2658
F371.5346213369217
s(I749
I883
tp2659
F196.60815610147557
s(I12
I287
tp2660
F5139.1924334626392
s(I38
I250
tp2661
F1155.0375202112
s(I3
I507
tp2662
F1050.2097267408501
s(I39
I930
tp2663
F419.86563648149865
s(I6
I19
tp2664
F2055.9404992734135
s(I9
I269
tp2665
F1161.6448409810032
s(I49
I678
tp2666
F474.04025160815132
s(I66
I604
tp2667
F2156.6988157685491
s(I40
I116
tp2668
F200.73176546106936
s(I107
I703
tp2669
F683.16518746516249
s(I182
I602
tp2670
F348.67355205766449
s(I0
I525
tp2671
F13141.385216416025
s(I31
I886
tp2672
F1403.3026114242768
s(I221
I480
tp2673
F178.12702774641716
s(I511
I772
tp2674
F5156.3732853693373
s(I5
I276
tp2675
F1069.8856472745433
s(I62
I333
tp2676
F2829.1793685178195
s(I512
I766
tp2677
F2889.0799258114275
s(I89
I534
tp2678
F557.36955847041293
s(I3
I138
tp2679
F779.80106933964998
s(I0
I700
tp2680
F620.81039664430261
s(I32
I640
tp2681
F489.05535172338585
s(I40
I462
tp2682
F1067.004737723405
s(I259
I409
tp2683
F437.3660588045712
s(I595
I646
tp2684
F347.39642000311528
s(I11
I767
tp2685
F761.42047870264696
s(I448
I947
tp2686
F2686.7384617466741
s(I177
I203
tp2687
F94.400985833600572
s(I208
I636
tp2688
F251.21981726883911
s(I19
I66
tp2689
F1479.8194160026767
s(I59
I235
tp2690
F2083.3251960315106
s(I95
I290
tp2691
F855.21002971988298
s(I425
I818
tp2692
F1488.1712767929132
s(I9
I421
tp2693
F2375.2806434055228
s(I154
I205
tp2694
F518.67540260666885
s(I345
I637
tp2695
F512.02770791589558
s(I15
I182
tp2696
F1337.8409556070401
s(I24
I960
tp2697
F636.66966216129174
s(I148
I886
tp2698
F610.13769677160371
s(I3
I45
tp2699
F2014.8682477770074
s(I97
I858
tp2700
F459.93003350773984
s(I95
I435
tp2701
F364.22771343672036
s(I6
I10
tp2702
F2426.3739049851688
s(I49
I788
tp2703
F326.53936946608917
s(I529
I920
tp2704
F178.87373183683471
s(I15
I360
tp2705
F6678.092683334502
s(I14
I285
tp2706
F345.32494270906324
s(I13
I850
tp2707
F835.42758369771138
s(I97
I512
tp2708
F3635.4957286079302
s(I4
I52
tp2709
F888.3681403877448
s(I117
I717
tp2710
F406.43589838521643
s(I8
I15
tp2711
F2483.4663003223882
s(I82
I289
tp2712
F177.98294045155944
s(I45
I246
tp2713
F319.99382436275363
s(I229
I804
tp2714
F296.06054143985932
s(I270
I350
tp2715
F111.46805242248776
s(I257
I827
tp2716
F353.05256949326412
s(I19
I500
tp2717
F497.35118020304878
s(I9
I16
tp2718
F1916.9345971120481
s(I65
I467
tp2719
F1199.9607458147334
s(I485
I982
tp2720
F269.16354206795376
s(I239
I975
tp2721
F358.07330325906179
s(I3
I344
tp2722
F988.68349363778407
s(I483
I543
tp2723
F234.82787300058217
s(I584
I747
tp2724
F283.2456602637501
s(I4
I30
tp2725
F1022.9702920272803
s(I125
I170
tp2726
F242.39363641107735
s(I17
I225
tp2727
F861.96741561365343
s(I0
I39
tp2728
F1446.4487200627525
s(I69
I733
tp2729
F317.09939782439773
s(I200
I253
tp2730
F139.62304535314021
s(I41
I235
tp2731
F3916.3897104900666
s(I204
I657
tp2732
F132.92831866645128
s(I25
I33
tp2733
F349.27307819558831
s(I379
I764
tp2734
F1393.1924391708994
s(I216
I266
tp2735
F1581.1190309511987
s(I70
I677
tp2736
F697.12658429002272
s(I70
I110
tp2737
F904.53110909886539
s(I109
I374
tp2738
F248.4447871806664
s(I164
I231
tp2739
F129.09696646605397
s(I75
I900
tp2740
F442.57077598038103
s(I756
I856
tp2741
F160.36891039916341
s(I98
I383
tp2742
F117.43337551944057
s(I353
I749
tp2743
F182.76258654088193
s(I7
I38
tp2744
F1304.5901809491186
s(I498
I704
tp2745
F6482.7204025925203
s(I110
I495
tp2746
F339.46798302828597
s(I570
I676
tp2747
F264.88399536928273
s(I2
I121
tp2748
F566.30680177628358
s(I330
I346
tp2749
F140.26862705633715
s(I132
I240
tp2750
F284.28592012081072
s(I64
I290
tp2751
F792.18021595830714
s(I46
I118
tp2752
F1039.2482141331404
s(I334
I879
tp2753
F4589.9705824751109
s(I94
I931
tp2754
F139.19085539396693
s(I554
I880
tp2755
F318.41451535101658
s(I96
I877
tp2756
F321.6852263258063
s(I118
I494
tp2757
F371.4841950852196
s(I421
I806
tp2758
F2851.7372876024788
s(I339
I802
tp2759
F226.18875792258649
s(I29
I375
tp2760
F1061.0468509144748
s(I236
I276
tp2761
F1474.5509831685222
s(I235
I590
tp2762
F1356.3184356321558
s(I182
I225
tp2763
F358.91497352335239
s(I97
I673
tp2764
F566.31377709734079
s(I111
I839
tp2765
F611.46531850865676
s(I408
I745
tp2766
F170.33646428947696
s(I61
I241
tp2767
F518.90855057139993
s(I155
I986
tp2768
F342.33302991923716
s(I528
I805
tp2769
F274.22584067978806
s(I121
I401
tp2770
F128.70728300194244
s(I64
I621
tp2771
F400.01484981270028
s(I110
I519
tp2772
F316.36371892205102
s(I93
I128
tp2773
F862.49813501460414
s(I2
I404
tp2774
F331.69848066432633
s(I313
I589
tp2775
F285.79753763155446
s(I81
I696
tp2776
F1625.9500320899701
s(I300
I692
tp2777
F773.59269692399891
s(I133
I346
tp2778
F193.81639787656567
s(I209
I281
tp2779
F1085.3074996809403
s(I247
I481
tp2780
F1455.5490391628534
s(I69
I211
tp2781
F706.0770421193223
s(I212
I242
tp2782
F1545.9421989029006
s(I178
I446
tp2783
F248.81627813358841
s(I70
I240
tp2784
F674.32107264140029
s(I100
I427
tp2785
F6566.9687010783391
s(I277
I314
tp2786
F203.72400896464481
s(I5
I197
tp2787
F705.88793887086649
s(I11
I169
tp2788
F1835.7324366975974
s(I234
I309
tp2789
F112.23949372649466
s(I13
I336
tp2790
F632.17629684390147
s(I865
I979
tp2791
F165.60515739640559
s(I132
I643
tp2792
F377.71340999751527
s(I175
I338
tp2793
F324.86120946289776
s(I85
I216
tp2794
F4605.0787943197138
s(I13
I587
tp2795
F1379.3953490815866
s(I31
I251
tp2796
F866.74472345462209
s(I5
I327
tp2797
F1099.3533961018134
s(I109
I621
tp2798
F273.90410063297861
s(I458
I849
tp2799
F302.62243106051147
s(I352
I686
tp2800
F8679.0830380021562
s(I135
I519
tp2801
F253.94241186129224
s(I154
I841
tp2802
F224.20620334276776
s(I512
I555
tp2803
F1209.4501854612611
s(I141
I178
tp2804
F678.13100785315851
s(I767
I823
tp2805
F174.95245742193697
s(I716
I779
tp2806
F138.78230677368606
s(I517
I897
tp2807
F182.76376657604919
s(I221
I452
tp2808
F375.02696938574576
s(I58
I898
tp2809
F473.8521429204917
s(I100
I125
tp2810
F276.68461537549189
s(I176
I715
tp2811
F270.30406343779606
s(I155
I684
tp2812
F414.50719175586221
s(I178
I876
tp2813
F369.02173683149817
s(I13
I504
tp2814
F988.03545817996053
s(I234
I298
tp2815
F104.73647374484693
s(I386
I909
tp2816
F163.20128151178369
s(I259
I574
tp2817
F490.39660427727779
s(I575
I863
tp2818
F1712.2896941506142
s(I98
I183
tp2819
F165.69586386702747
s(I152
I654
tp2820
F3941.3004779222042
s(I4
I492
tp2821
F1006.0744175458115
s(I29
I877
tp2822
F726.43722967379983
s(I12
I48
tp2823
F1332.665827866784
s(I13
I329
tp2824
F4595.8929412741154
s(I41
I92
tp2825
F816.83662135773886
s(I22
I134
tp2826
F547.46426181928007
s(I59
I247
tp2827
F4467.369598998288
s(I61
I743
tp2828
F276.11796716868247
s(I632
I669
tp2829
F583.95726178487564
s(I9
I449
tp2830
F899.29890248704805
s(I10
I465
tp2831
F8528.3659355419186
s(I11
I872
tp2832
F910.88555740971435
s(I448
I526
tp2833
F246.93919832301563
s(I93
I279
tp2834
F4270.1363003964188
s(I570
I607
tp2835
F330.15572600819274
s(I20
I199
tp2836
F2357.22881725661
s(I77
I487
tp2837
F532.05254684238923
s(I627
I672
tp2838
F174.09425538102002
s(I468
I964
tp2839
F340.75986513486509
s(I6
I502
tp2840
F787.79962956625047
s(I279
I635
tp2841
F958.09075953867853
s(I372
I384
tp2842
F183.68577679108367
s(I412
I486
tp2843
F202.80005250530161
s(I110
I988
tp2844
F5525.6431430454659
s(I0
I187
tp2845
F395.29142941717453
s(I254
I666
tp2846
F691.47685706261302
s(I20
I889
tp2847
F684.33641467841665
s(I277
I475
tp2848
F111.21113028117374
s(I80
I105
tp2849
F459.94615557179657
s(I262
I434
tp2850
F2356.6991725681328
s(I590
I915
tp2851
F8152.5520919880119
s(I9
I163
tp2852
F904.41939988583147
s(I554
I795
tp2853
F233.10677238807722
s(I16
I402
tp2854
F451.64409127948494
s(I529
I533
tp2855
F169.28383040554539
s(I22
I690
tp2856
F7914.7230799479885
s(I254
I415
tp2857
F4663.7158841640885
s(I5
I744
tp2858
F941.16863790734033
s(I75
I245
tp2859
F4162.1161568990537
s(I661
I870
tp2860
F161.63488439664906
s(I259
I551
tp2861
F390.21879647621165
s(I43
I866
tp2862
F5840.5942333660487
s(I7
I162
tp2863
F1504.9058239954995
s(I653
I790
tp2864
F157.6300484699606
s(I230
I484
tp2865
F1021.0741084577145
s(I12
I47
tp2866
F770.80258911189765
s(I31
I221
tp2867
F791.0323955024096
s(I13
I322
tp2868
F1367.573957643235
s(I17
I60
tp2869
F1008.1675955101721
s(I74
I423
tp2870
F482.55625119398809
s(I609
I859
tp2871
F155.98359078834167
s(I22
I847
tp2872
F412.31076443955209
s(I42
I76
tp2873
F3352.8220339846425
s(I872
I873
tp2874
F52.09164555774462
s(I10
I727
tp2875
F401.82873107689892
s(I14
I174
tp2876
F3208.5286972090307
s(I289
I509
tp2877
F328.32754442177861
s(I113
I654
tp2878
F7777.8256654973402
s(I19
I106
tp2879
F333.22081068307483
s(I92
I853
tp2880
F344.33231647385514
s(I7
I60
tp2881
F900.41203506976603
s(I120
I125
tp2882
F230.22941124061839
s(I302
I944
tp2883
F91.221389891477628
s(I34
I309
tp2884
F231.45353501577793
s(I13
I36
tp2885
F4581.0778785898992
s(I643
I916
tp2886
F224.60989154294555
s(I1
I36
tp2887
F3674.3690031193491
s(I148
I640
tp2888
F304.36918059861102
s(I495
I555
tp2889
F206.60465292361576
s(I4
I23
tp2890
F1370.2447068946205
s(I6
I738
tp2891
F722.87830674719532
s(I65
I988
tp2892
F8271.0341188545626
s(I11
I696
tp2893
F5572.9877918034208
s(I212
I338
tp2894
F1448.3912547693785
s(I32
I200
tp2895
F581.45141910389123
s(I13
I490
tp2896
F705.45680880924886
s(I306
I372
tp2897
F494.16527821009333
s(I552
I697
tp2898
F306.56065054224763
s(I128
I278
tp2899
F170.91732144007011
s(I94
I154
tp2900
F154.87285766771618
s(I83
I152
tp2901
F398.24747538280616
s(I199
I419
tp2902
F2923.2309312335356
s(I425
I578
tp2903
F1313.1985171701483
s(I28
I316
tp2904
F602.2273909689527
s(I505
I748
tp2905
F124.84092653132899
s(I32
I748
tp2906
F461.21549000535066
s(I182
I338
tp2907
F596.74798468074289
s(I19
I108
tp2908
F398.39544892677696
s(I258
I354
tp2909
F602.07657160773533
s(I564
I665
tp2910
F234.99857402335923
s(I613
I828
tp2911
F147.09736600325698
s(I135
I375
tp2912
F389.22443745550152
s(I13
I630
tp2913
F823.48818873715527
s(I195
I623
tp2914
F328.39367641801664
s(I15
I886
tp2915
F1148.4711611053897
s(I100
I106
tp2916
F259.89748128923452
s(I110
I229
tp2917
F473.67350935118554
s(I75
I389
tp2918
F274.53921272099154
s(I55
I572
tp2919
F412.38727875253818
s(I479
I976
tp2920
F9343.9838314285371
s(I423
I583
tp2921
F2277.198473516989
s(I101
I632
tp2922
F543.96385996759261
s(I31
I504
tp2923
F378.89228363018896
s(I42
I873
tp2924
F607.63761530275735
s(I15
I551
tp2925
F691.11501349122182
s(I475
I681
tp2926
F173.05869783810959
s(I115
I139
tp2927
F192.03869416895435
s(I93
I620
tp2928
F668.14342875967918
s(I5
I355
tp2929
F357.63057970151613
s(I73
I123
tp2930
F1046.352010033849
s(I190
I236
tp2931
F1852.0549471692568
s(I28
I132
tp2932
F2309.1016205981964
s(I235
I840
tp2933
F678.79040710911079
s(I533
I540
tp2934
F1798.9603233245384
s(I93
I426
tp2935
F1221.9397776172184
s(I5
I57
tp2936
F1912.2892419909913
s(I53
I143
tp2937
F724.0265973935509
s(I45
I349
tp2938
F499.53259071262721
s(I68
I309
tp2939
F122.35729950228679
s(I178
I232
tp2940
F641.04087355101638
s(I42
I818
tp2941
F1801.7464251229869
s(I127
I223
tp2942
F410.66501112049696
s(I85
I981
tp2943
F8607.5068347840388
s(I4
I316
tp2944
F852.18417233395758
s(I25
I414
tp2945
F421.2000952847356
s(I62
I455
tp2946
F163.39004108170332
s(I28
I791
tp2947
F478.82613765875919
s(I13
I58
tp2948
F3981.4265996579638
s(I15
I225
tp2949
F599.79883086101825
s(I92
I533
tp2950
F301.00520557676469
s(I347
I689
tp2951
F355.76986152723788
s(I9
I600
tp2952
F817.35480244794337
s(I8
I113
tp2953
F1862.9400616580106
s(I57
I310
tp2954
F444.93697115731595
s(I207
I894
tp2955
F1123.4377660988298
s(I414
I844
tp2956
F143.98578497357775
s(I8
I256
tp2957
F734.64758937457168
s(I143
I824
tp2958
F367.85903430041782
s(I347
I379
tp2959
F1863.521529559484
s(I458
I564
tp2960
F269.23851329714796
s(I450
I944
tp2961
F141.67245305517946
s(I370
I495
tp2962
F292.21831993015184
s(I25
I325
tp2963
F301.97917888795644
s(I155
I403
tp2964
F243.41000989418421
s(I517
I929
tp2965
F169.40847139173064
s(I12
I69
tp2966
F3218.3308154009715
s(I361
I701
tp2967
F194.17380349653999
s(I768
I848
tp2968
F134.19892631672471
s(I13
I969
tp2969
F906.26652409103406
s(I489
I974
tp2970
F289.9959554229639
s(I3
I282
tp2971
F10643.828052603667
s(I372
I400
tp2972
F335.24567811089662
s(I13
I162
tp2973
F3090.2144422745291
s(I252
I299
tp2974
F180.24728118838524
s(I198
I230
tp2975
F6296.0813326009365
s(I74
I519
tp2976
F369.57125290792925
s(I695
I747
tp2977
F177.08999606631184
s(I28
I460
tp2978
F221.54159681878241
s(I20
I116
tp2979
F809.07268214398198
s(I20
I417
tp2980
F490.62809254360479
s(I354
I714
tp2981
F300.5463637008715
s(I725
I809
tp2982
F197.75249380249375
s(I50
I678
tp2983
F260.03431047534815
s(I157
I173
tp2984
F315.44905638946403
s(I587
I824
tp2985
F224.0400516618144
s(I199
I617
tp2986
F418.590783139157
s(I41
I653
tp2987
F393.8598190565923
s(I80
I267
tp2988
F619.76917364621897
s(I61
I295
tp2989
F2524.2184432325798
s(I542
I623
tp2990
F169.8939193953594
s(I4
I498
tp2991
F2767.3581519964487
s(I28
I107
tp2992
F3602.5989224657555
s(I339
I957
tp2993
F64.095390720390725
s(I214
I748
tp2994
F215.43978047809316
s(I49
I687
tp2995
F629.79454850275283
s(I56
I762
tp2996
F245.7131806122934
s(I255
I698
tp2997
F172.57235548285172
s(I181
I515
tp2998
F436.01000697967726
s(I20
I330
tp2999
F613.15654284002619
s(I523
I999
tp3000
F210.49522232153802
s(I46
I52
tp3001
F275.15827449216357
s(I66
I837
tp3002
F599.59211756616548
s(I31
I725
tp3003
F449.816554803006
s(I270
I733
tp3004
F160.50715565656196
s(I17
I399
tp3005
F862.10120920625445
s(I111
I973
tp3006
F978.71996225392218
s(I183
I336
tp3007
F90.830396807903014
s(I4
I147
tp3008
F568.27602028041599
s(I5
I43
tp3009
F7319.1538589535767
s(I6
I171
tp3010
F1941.4563867314844
s(I580
I946
tp3011
F234.50623732927855
s(I44
I589
tp3012
F559.78128905943629
s(I778
I934
tp3013
F140.07186503695002
s(I28
I758
tp3014
F656.70898345592741
s(I124
I899
tp3015
F653.1861826690689
s(I249
I707
tp3016
F444.49297468527561
s(I251
I432
tp3017
F341.38266005263193
s(I325
I404
tp3018
F138.03181387556791
s(I436
I892
tp3019
F617.66398241186039
s(I744
I810
tp3020
F170.7016458978508
s(I140
I849
tp3021
F318.42109932551108
s(I7
I72
tp3022
F887.340368577557
s(I193
I511
tp3023
F439.21349996656323
s(I31
I70
tp3024
F3035.8864691965555
s(I912
I936
tp3025
F316.70753807903168
s(I70
I82
tp3026
F912.53103740924576
s(I254
I558
tp3027
F402.1106126623846
s(I41
I629
tp3028
F451.94480265460328
s(I191
I390
tp3029
F349.79694798796595
s(I5
I920
tp3030
F1227.7095315772424
s(I463
I513
tp3031
F118.07656026464072
s(I47
I651
tp3032
F295.42148062224783
s(I275
I834
tp3033
F378.80183670945468
s(I11
I417
tp3034
F625.10073518410502
s(I713
I735
tp3035
F652.17626706971384
s(I6
I300
tp3036
F4124.9692082242991
s(I146
I712
tp3037
F710.33830574070805
s(I89
I583
tp3038
F4795.1570443553765
s(I58
I83
tp3039
F562.26426020375891
s(I203
I530
tp3040
F196.04525195233484
s(I663
I754
tp3041
F224.174851549658
s(I82
I103
tp3042
F422.12498462748556
s(I111
I552
tp3043
F1485.2319275823722
s(I478
I940
tp3044
F244.21290637467106
s(I251
I622
tp3045
F163.51920903251835
s(I146
I368
tp3046
F372.03692140939035
s(I3
I4
tp3047
F3840.3810967871837
s(I537
I731
tp3048
F347.00416250416242
s(I7
I21
tp3049
F3254.9805765559704
s(I209
I505
tp3050
F280.72405466207448
s(I160
I403
tp3051
F124.06175189003123
s(I28
I256
tp3052
F537.50419637445691
s(I80
I300
tp3053
F1562.2931939654288
s(I197
I541
tp3054
F124.85904147067008
s(I273
I868
tp3055
F142.86330789177089
s(I660
I784
tp3056
F189.08051214924274
s(I458
I799
tp3057
F349.37769077327897
s(I316
I453
tp3058
F628.98804910725278
s(I22
I866
tp3059
F15362.277062056703
s(I665
I958
tp3060
F1400.9014775075486
s(I426
I740
tp3061
F347.87205655063951
s(I8
I407
tp3062
F10479.551968002503
s(I528
I675
tp3063
F345.18079126722677
s(I146
I925
tp3064
F250.45277712557856
s(I620
I902
tp3065
F248.0195759352172
s(I71
I499
tp3066
F4129.6198722562849
s(I19
I249
tp3067
F3249.9304966736645
s(I4
I99
tp3068
F576.77578450404098
s(I164
I659
tp3069
F249.25451917986237
s(I481
I650
tp3070
F172.82315968345378
s(I10
I133
tp3071
F1038.7817003787175
s(I301
I821
tp3072
F7737.8247914063504
s(I110
I219
tp3073
F375.06417152826498
s(I159
I171
tp3074
F371.91437558149818
s(I15
I438
tp3075
F489.09771099657087
s(I91
I212
tp3076
F3975.7813392449234
s(I1
I25
tp3077
F2705.9780796848777
s(I330
I881
tp3078
F388.78530093185276
s(I26
I925
tp3079
F673.02672058893256
s(I80
I392
tp3080
F1048.5300972156085
s(I5
I786
tp3081
F797.96631709604833
s(I195
I274
tp3082
F217.45134148379725
s(I69
I111
tp3083
F2476.8272971562365
s(I52
I169
tp3084
F352.47790587931121
s(I93
I398
tp3085
F919.0580511533152
s(I24
I469
tp3086
F376.22523449195774
s(I5
I29
tp3087
F5372.7501727818326
s(I4
I253
tp3088
F642.5430994386403
s(I100
I157
tp3089
F421.05013686606225
s(I214
I472
tp3090
F171.93035753968087
s(I31
I540
tp3091
F6304.2846170160747
s(I640
I921
tp3092
F251.24428339218346
s(I266
I537
tp3093
F197.13115986749742
s(I74
I461
tp3094
F432.81460974464767
s(I310
I506
tp3095
F199.93527527196454
s(I210
I765
tp3096
F287.86607857523302
s(I492
I692
tp3097
F437.98373824491898
s(I31
I52
tp3098
F630.45208655839554
s(I74
I427
tp3099
F6459.725634868154
s(I333
I596
tp3100
F1190.1452244067523
s(I110
I898
tp3101
F260.0306924490302
s(I6
I455
tp3102
F833.65502890921914
s(I310
I845
tp3103
F168.63420628737265
s(I963
I992
tp3104
F164.51233845498217
s(I395
I994
tp3105
F305.45400329804352
s(I111
I473
tp3106
F525.74543864181715
s(I128
I236
tp3107
F1217.3491091459512
s(I328
I553
tp3108
F473.02227830655835
s(I4
I249
tp3109
F5227.3175531045199
s(I423
I753
tp3110
F178.67849109103597
s(I246
I587
tp3111
F220.77133776145342
s(I465
I534
tp3112
F553.95027132364248
s(I47
I69
tp3113
F804.38899857170793
s(I141
I331
tp3114
F497.85580758893042
s(I1
I789
tp3115
F566.25687285280958
s(I76
I577
tp3116
F915.62062844977947
s(I193
I252
tp3117
F165.88133993673785
s(I21
I448
tp3118
F1036.2478716826276
s(I556
I768
tp3119
F178.3658799794695
s(I5
I6
tp3120
F4460.7599038064536
s(I135
I678
tp3121
F260.17234210816622
s(I9
I67
tp3122
F967.44629915270536
s(I48
I427
tp3123
F6243.465286251545
s(I768
I939
tp3124
F140.09575245875553
s(I414
I586
tp3125
F141.29518313849761
s(I0
I906
tp3126
F819.10010695749486
s(I17
I129
tp3127
F2072.0677543886563
s(I39
I220
tp3128
F250.85222775543852
s(I336
I600
tp3129
F108.01314417948065
s(I1
I109
tp3130
F1107.9381607489343
s(I652
I854
tp3131
F1080.8521231837551
s(I9
I615
tp3132
F527.60642613389462
s(I140
I207
tp3133
F2456.3681991094868
s(I68
I892
tp3134
F1052.96088591236
s(I417
I950
tp3135
F301.32681207681208
s(I5
I610
tp3136
F591.42397594474494
s(I20
I255
tp3137
F781.36712047333117
s(I9
I85
tp3138
F3131.4114151468511
s(I10
I815
tp3139
F676.20368688400629
s(I299
I535
tp3140
F238.03144070905898
s(I66
I739
tp3141
F11594.397444167571
s(I50
I220
tp3142
F164.33546918248015
s(I13
I424
tp3143
F1032.3468041487731
s(I415
I921
tp3144
F2194.7881056005845
s(I109
I297
tp3145
F330.42752029130384
s(I93
I218
tp3146
F755.626803191627
s(I117
I212
tp3147
F3296.7731805133553
s(I279
I357
tp3148
F2106.9031090705216
s(I28
I683
tp3149
F2514.8580685777451
s(I412
I778
tp3150
F208.17960416776202
s(I270
I697
tp3151
F197.53681508947167
s(I181
I651
tp3152
F278.4595301206723
s(I518
I838
tp3153
F3059.238843169207
s(I213
I911
tp3154
F191.6667863515575
s(I23
I864
tp3155
F435.65124168668575
s(I10
I513
tp3156
F326.92033030036129
s(I11
I856
tp3157
F484.69408736685182
s(I750
I831
tp3158
F247.04720237153981
s(I307
I478
tp3159
F1335.3832915400083
s(I232
I975
tp3160
F506.70298936717222
s(I666
I667
tp3161
F285.44515423483887
s(I132
I134
tp3162
F448.55107912459789
s(I23
I42
tp3163
F1001.2568562491289
s(I12
I326
tp3164
F478.33883333804516
s(I14
I102
tp3165
F443.62533482302956
s(I218
I453
tp3166
F636.12797284712451
s(I471
I917
tp3167
F275.13789781434303
s(I239
I327
tp3168
F182.02459631064667
s(I4
I515
tp3169
F2240.4009472656744
s(I511
I851
tp3170
F360.5587360655108
s(I1
I895
tp3171
F1580.5911935894858
s(I299
I524
tp3172
F179.42624034071832
s(I111
I190
tp3173
F1314.3147211240985
s(I339
I405
tp3174
F349.53985428426279
s(I1
I108
tp3175
F846.16122551239505
s(I165
I171
tp3176
F426.6710289375136
s(I3
I682
tp3177
F1499.1445529987325
s(I5
I231
tp3178
F956.78945865932474
s(I7
I82
tp3179
F878.79756070550968
s(I7
I537
tp3180
F519.83521083358585
s(I249
I282
tp3181
F2142.6397726798937
s(I69
I323
tp3182
F1180.3930498148889
s(I124
I161
tp3183
F1235.0692790195856
s(I17
I537
tp3184
F740.79945536929472
s(I110
I782
tp3185
F1151.4731205271701
s(I509
I846
tp3186
F153.04722278539933
s(I68
I233
tp3187
F473.10180865489644
s(I2
I5
tp3188
F3038.7280598306202
s(I28
I935
tp3189
F1307.0284563478037
s(I813
I896
tp3190
F137.55740967470174
s(I494
I848
tp3191
F176.33641627774418
s(I317
I502
tp3192
F135.91561312448471
s(I174
I226
tp3193
F347.3179066395366
s(I95
I121
tp3194
F460.28387063512491
s(I328
I534
tp3195
F259.68017101826899
s(I123
I686
tp3196
F3999.2288675063896
s(I161
I215
tp3197
F379.26165670171866
s(I312
I842
tp3198
F220.96945197887132
s(I53
I284
tp3199
F646.7083443064256
s(I2
I331
tp3200
F759.68897639052102
s(I76
I454
tp3201
F1049.2175728289963
s(I117
I585
tp3202
F253.23050726887098
s(I245
I682
tp3203
F1195.7040153437604
s(I143
I489
tp3204
F422.98851703516789
s(I47
I264
tp3205
F184.16916219679271
s(I258
I385
tp3206
F463.46207711689539
s(I87
I525
tp3207
F4522.6299223919223
s(I237
I416
tp3208
F257.56829389895103
s(I19
I277
tp3209
F471.24510411130933
s(I3
I79
tp3210
F1069.0077460658256
s(I812
I942
tp3211
F121.29183161346346
s(I348
I974
tp3212
F585.14038747413758
s(I64
I532
tp3213
F2737.8558179750585
s(I46
I857
tp3214
F730.15750141873275
s(I178
I846
tp3215
F255.86500683996212
s(I270
I792
tp3216
F94.758838577608273
s(I110
I934
tp3217
F194.06744822135829
s(I92
I373
tp3218
F399.0223368243054
s(I270
I443
tp3219
F153.07021458349695
s(I187
I996
tp3220
F193.09203058947298
s(I81
I378
tp3221
F243.31212916497316
s(I299
I914
tp3222
F193.0186617015722
s(I339
I673
tp3223
F233.34179768637512
s(I11
I140
tp3224
F1922.7316687925529
s(I584
I804
tp3225
F266.08340346153159
s(I126
I763
tp3226
F754.96327106684669
s(I171
I736
tp3227
F287.34973807526762
s(I501
I581
tp3228
F254.75191274726876
s(I129
I217
tp3229
F478.02591478112481
s(I310
I717
tp3230
F240.01408978391544
s(I22
I475
tp3231
F686.67053428277984
s(I66
I97
tp3232
F1874.5679613398097
s(I11
I285
tp3233
F870.84188505787654
s(I359
I932
tp3234
F461.49767072923498
s(I61
I798
tp3235
F237.55628959150621
s(I587
I890
tp3236
F684.43652958145185
s(I506
I985
tp3237
F2115.8359189401322
s(I509
I824
tp3238
F163.07896932298959
s(I111
I681
tp3239
F680.1682490598771
s(I479
I952
tp3240
F348.70977390487189
s(I60
I76
tp3241
F2160.6439996958106
s(I327
I774
tp3242
F229.53550178199544
s(I561
I847
tp3243
F143.76951427968768
s(I471
I765
tp3244
F241.58557134872927
s(I4
I611
tp3245
F984.84061610290064
s(I198
I580
tp3246
F252.41937488761067
s(I54
I987
tp3247
F569.12589904088406
s(I427
I476
tp3248
F1518.9284334027068
s(I274
I622
tp3249
F135.61292969966505
s(I4
I78
tp3250
F2521.0819912245224
s(I573
I992
tp3251
F185.30150582980471
s(I5
I275
tp3252
F3052.3186065906739
s(I137
I464
tp3253
F160.4521376112707
s(I85
I959
tp3254
F639.65580651823177
s(I29
I66
tp3255
F2498.9930883759885
s(I66
I609
tp3256
F535.51963921170795
s(I322
I441
tp3257
F128.89337859306744
s(I70
I140
tp3258
F1298.6697911957133
s(I216
I740
tp3259
F1099.0580091935051
s(I370
I874
tp3260
F431.28383595839665
s(I26
I437
tp3261
F689.13917618131336
s(I338
I643
tp3262
F194.22160025783398
s(I393
I756
tp3263
F156.74358912823035
s(I448
I948
tp3264
F304.36236704084206
s(I106
I176
tp3265
F282.35696608342289
s(I13
I292
tp3266
F1358.6754443994621
s(I77
I483
tp3267
F555.86337116139873
s(I0
I434
tp3268
F8460.1265520478119
s(I1
I292
tp3269
F1287.6015948244458
s(I368
I737
tp3270
F173.08594092729123
s(I58
I232
tp3271
F1421.3362803526925
s(I4
I364
tp3272
F547.4260629032774
s(I112
I176
tp3273
F265.79965670598278
s(I579
I720
tp3274
F2131.4154808979088
s(I11
I847
tp3275
F435.99474305246537
s(I11
I274
tp3276
F1077.3158596177411
s(I287
I479
tp3277
F1227.2021142636863
s(I17
I239
tp3278
F1008.9422325737828
s(I257
I536
tp3279
F299.47451375099979
s(I6
I490
tp3280
F675.5403876829472
s(I3
I44
tp3281
F1318.1782593112105
s(I39
I858
tp3282
F376.21216823879121
s(I5
I395
tp3283
F784.46253715423325
s(I6
I11
tp3284
F4350.841684522632
s(I190
I279
tp3285
F2518.9875992092957
s(I299
I738
tp3286
F70.060619769106992
s(I359
I555
tp3287
F239.35617998348781
s(I32
I39
tp3288
F2036.878743764823
s(I286
I342
tp3289
F1257.7857188083249
s(I750
I987
tp3290
F175.14099322574421
s(I680
I968
tp3291
F344.39507175190477
s(I437
I624
tp3292
F138.29785667931841
s(I44
I599
tp3293
F618.93880513439956
s(I9
I134
tp3294
F640.8573917794921
s(I0
I61
tp3295
F1149.3102901418276
s(I156
I581
tp3296
F295.86200380380001
s(I110
I383
tp3297
F269.60364976724429
s(I396
I468
tp3298
F3552.8351549250528
s(I273
I521
tp3299
F197.01456841796559
s(I200
I567
tp3300
F435.95394473475972
s(I266
I376
tp3301
F165.11794068119463
s(I423
I527
tp3302
F113.22362847917996
s(I102
I308
tp3303
F248.53085852356787
s(I84
I807
tp3304
F370.01031533825648
s(I13
I711
tp3305
F847.21314380058163
s(I361
I382
tp3306
F141.25768791106506
s(I9
I780
tp3307
F967.96563322719885
s(I466
I643
tp3308
F121.90989141134486
s(I58
I326
tp3309
F248.13284892952507
s(I12
I615
tp3310
F565.78262320451074
s(I371
I872
tp3311
F126.61051345455367
s(I83
I895
tp3312
F211.86583761005858
s(I9
I571
tp3313
F1092.6632363810218
s(I233
I911
tp3314
F175.65215915857829
s(I752
I937
tp3315
F236.76768644613662
s(I70
I988
tp3316
F8994.6685121138344
s(I235
I482
tp3317
F1852.4491475782443
s(I364
I432
tp3318
F194.60005718394913
s(I917
I957
tp3319
F122.72139063668295
s(I53
I339
tp3320
F386.95582213998699
s(I4
I592
tp3321
F779.96888990089258
s(I74
I573
tp3322
F465.36615449786899
s(I45
I93
tp3323
F1732.1225668982152
s(I639
I739
tp3324
F6179.7261984324305
s(I224
I372
tp3325
F290.36353545562736
s(I179
I884
tp3326
F101.89538004638433
s(I327
I887
tp3327
F151.96467442636626
s(I474
I729
tp3328
F217.73870152617769
s(I256
I694
tp3329
F335.32696221047598
s(I181
I480
tp3330
F309.36302214269506
s(I621
I870
tp3331
F149.65254325458366
s(I46
I882
tp3332
F613.12305520853624
s(I408
I618
tp3333
F90.686315875366461
s(I71
I595
tp3334
F603.37044291089262
s(I2
I118
tp3335
F1100.7841752300712
s(I24
I546
tp3336
F279.61669784669698
s(I39
I912
tp3337
F354.27784940082279
s(I37
I336
tp3338
F174.7589277117155
s(I69
I483
tp3339
F691.30515999003956
s(I160
I321
tp3340
F292.17034207492122
s(I144
I395
tp3341
F231.78208635747202
s(I56
I552
tp3342
F1105.1602891808432
s(I787
I924
tp3343
F162.67239511219771
s(I20
I67
tp3344
F677.59600542114026
s(I167
I812
tp3345
F297.95958265087143
s(I280
I763
tp3346
F305.89825667370417
s(I6
I106
tp3347
F631.35662551927896
s(I463
I672
tp3348
F173.14474542651658
s(I5
I218
tp3349
F2155.5271027066997
s(I244
I670
tp3350
F7372.8634404337618
s(I13
I224
tp3351
F996.11228147397082
s(I232
I306
tp3352
F916.40524872876574
s(I587
I865
tp3353
F342.64914786023996
s(I514
I515
tp3354
F200.2378706181519
s(I108
I158
tp3355
F306.91734094931763
s(I329
I644
tp3356
F557.35737103921088
s(I1
I167
tp3357
F627.03351245563761
s(I2
I303
tp3358
F613.88313917309449
s(I24
I779
tp3359
F1013.7428262850409
s(I179
I645
tp3360
F120.65252761943938
s(I60
I89
tp3361
F496.52237615747521
s(I212
I655
tp3362
F612.39582288031818
s(I4
I262
tp3363
F1273.8487189871962
s(I118
I963
tp3364
F323.44709286055172
s(I73
I394
tp3365
F7513.4959870648318
s(I67
I674
tp3366
F615.73354176944815
s(I33
I630
tp3367
F198.99648333948127
s(I69
I261
tp3368
F501.42035195984084
s(I15
I377
tp3369
F550.54692368337214
s(I345
I633
tp3370
F579.18627453235797
s(I292
I306
tp3371
F884.02555041169239
s(I77
I325
tp3372
F627.08189076478368
s(I98
I202
tp3373
F235.61460424145676
s(I8
I62
tp3374
F1273.3923771605646
s(I49
I918
tp3375
F380.86611548530584
s(I106
I471
tp3376
F471.76749114133594
s(I158
I626
tp3377
F179.59232090340385
s(I1
I811
tp3378
F864.5064840940388
s(I163
I699
tp3379
F118.15233334406423
s(I386
I871
tp3380
F107.71423636704401
s(I593
I727
tp3381
F72.34173427416124
s(I298
I517
tp3382
F245.69597379515315
s(I84
I376
tp3383
F313.6590345967042
s(I189
I752
tp3384
F280.11685525869348
s(I307
I411
tp3385
F1360.120982470401
s(I454
I597
tp3386
F257.48901881187032
s(I111
I454
tp3387
F1056.3632446758909
s(I132
I652
tp3388
F305.84061791197337
s(I593
I918
tp3389
F92.474918184670472
s(I279
I524
tp3390
F1183.0891824651585
s(I375
I461
tp3391
F199.55316525603629
s(I675
I900
tp3392
F374.37926879653941
s(I13
I21
tp3393
F5335.7303271961746
s(I15
I721
tp3394
F597.60013120040787
s(I128
I507
tp3395
F212.41272936561711
s(I2
I462
tp3396
F1877.6824653447466
s(I20
I57
tp3397
F1189.434388494504
s(I647
I955
tp3398
F112.54724115753527
s(I115
I403
tp3399
F120.62038247297063
s(I211
I228
tp3400
F270.77660239479229
s(I84
I94
tp3401
F260.64333015611135
s(I301
I688
tp3402
F332.33308516880368
s(I18
I115
tp3403
F765.41633397363421
s(I625
I985
tp3404
F1625.1840358776387
s(I38
I941
tp3405
F1119.7305079116306
s(I22
I619
tp3406
F852.09505841486941
s(I8
I37
tp3407
F1656.465651253232
s(I53
I252
tp3408
F213.96575100015633
s(I174
I662
tp3409
F599.15458617726142
s(I11
I80
tp3410
F2728.5576485211232
s(I214
I569
tp3411
F157.27448304091038
s(I2
I72
tp3412
F687.13851389839056
s(I465
I674
tp3413
F754.70915895860412
s(I178
I319
tp3414
F275.97904458720421
s(I528
I571
tp3415
F136.15558864199036
s(I12
I49
tp3416
F1498.7695163915187
s(I174
I429
tp3417
F1022.9815867196361
s(I450
I633
tp3418
F198.22951564874137
s(I180
I744
tp3419
F140.95166977292263
s(I71
I726
tp3420
F203.49745227298135
s(I221
I229
tp3421
F284.76384487807957
s(I96
I892
tp3422
F772.3404878314484
s(I340
I925
tp3423
F147.9931030441866
s(I7
I366
tp3424
F577.14478867761625
s(I272
I312
tp3425
F195.42030197572768
s(I227
I812
tp3426
F308.815686500933
s(I11
I875
tp3427
F718.37889617395228
s(I817
I828
tp3428
F110.29489851393878
s(I13
I14
tp3429
F1425.5320092547699
s(I14
I850
tp3430
F201.23546854934236
s(I1
I718
tp3431
F1287.6103274981008
s(I93
I352
tp3432
F1310.1298694450984
s(I148
I320
tp3433
F238.2412388337215
s(I386
I599
tp3434
F226.01019661068392
s(I459
I904
tp3435
F202.22302092027957
s(I42
I213
tp3436
F973.39538538491558
s(I58
I345
tp3437
F4888.9905519902713
s(I10
I417
tp3438
F567.14914201480383
s(I835
I933
tp3439
F212.52564509245542
s(I87
I551
tp3440
F1483.2355675149081
s(I515
I558
tp3441
F247.74277749977946
s(I135
I287
tp3442
F1466.4924868352589
s(I606
I635
tp3443
F2220.2048003938239
s(I37
I361
tp3444
F478.02196061585374
s(I93
I860
tp3445
F651.85957738199727
s(I21
I47
tp3446
F1123.8810020149485
s(I899
I998
tp3447
F304.07539444471263
s(I375
I630
tp3448
F144.76404625252516
s(I11
I73
tp3449
F1798.5488468440287
s(I178
I731
tp3450
F374.54405316905314
s(I71
I679
tp3451
F542.04051548476173
s(I127
I347
tp3452
F731.84493227150119
s(I552
I691
tp3453
F219.42860983268045
s(I20
I294
tp3454
F4690.0311227472312
s(I132
I739
tp3455
F5370.7291106161601
s(I12
I554
tp3456
F1223.017124955627
s(I423
I476
tp3457
F500.81245807266373
s(I8
I358
tp3458
F5406.7796006938306
s(I311
I339
tp3459
F235.97709122898613
s(I9
I51
tp3460
F6115.5563354970573
s(I281
I822
tp3461
F468.24614207051201
s(I229
I936
tp3462
F211.60928005686071
s(I107
I362
tp3463
F539.57602076408273
s(I71
I128
tp3464
F525.64677521464239
s(I39
I347
tp3465
F719.02221481797551
s(I405
I930
tp3466
F163.33331394623514
s(I64
I242
tp3467
F558.66196762553807
s(I45
I48
tp3468
F534.88186370379765
s(I29
I790
tp3469
F575.30432605338285
s(I0
I4
tp3470
F3022.9881019090203
s(I71
I860
tp3471
F340.72369149873231
s(I239
I270
tp3472
F203.34322946203528
s(I21
I199
tp3473
F2016.7818818793835
s(I4
I897
tp3474
F751.08392507890062
s(I95
I415
tp3475
F8461.8355467726997
s(I151
I301
tp3476
F543.93890524504434
s(I101
I489
tp3477
F488.9866085811359
s(I28
I31
tp3478
F2423.8517634063614
s(I672
I789
tp3479
F163.79450055162127
s(I17
I967
tp3480
F361.21979559632285
s(I127
I499
tp3481
F3829.7618665494256
s(I474
I701
tp3482
F178.60006235149399
s(I471
I861
tp3483
F2231.3015957433863
s(I717
I933
tp3484
F177.92290527785283
s(I47
I246
tp3485
F175.30654186501798
s(I43
I416
tp3486
F903.92445550408058
s(I150
I388
tp3487
F435.28629657447169
s(I118
I146
tp3488
F899.21665525970161
s(I227
I510
tp3489
F212.69955759057305
s(I232
I487
tp3490
F342.76797935402953
s(I410
I880
tp3491
F369.77508996159105
s(I234
I282
tp3492
F1596.6765123479477
s(I584
I998
tp3493
F321.60530036256381
s(I452
I799
tp3494
F272.83414396061454
s(I346
I371
tp3495
F145.73965029556993
s(I20
I36
tp3496
F2383.4492310238597
s(I185
I490
tp3497
F177.63334913167273
s(I22
I25
tp3498
F1618.1498842752114
s(I25
I862
tp3499
F1139.1710150193469
s(I150
I952
tp3500
F204.15809982570443
s(I10
I625
tp3501
F1079.5855701806393
s(I290
I568
tp3502
F186.10701505237105
s(I157
I297
tp3503
F301.70799568606202
s(I12
I39
tp3504
F1856.8419578866631
s(I31
I197
tp3505
F413.24467494439659
s(I89
I313
tp3506
F1666.1731922855156
s(I236
I517
tp3507
F788.0736225530851
s(I19
I111
tp3508
F3076.091396696072
s(I113
I120
tp3509
F523.17749834998779
s(I93
I631
tp3510
F9691.7843714358442
s(I24
I98
tp3511
F371.30006114732015
s(I392
I945
tp3512
F6607.3827612354116
s(I155
I162
tp3513
F866.20289112359319
s(I30
I88
tp3514
F316.68599260081214
s(I72
I153
tp3515
F242.00082489330708
s(I24
I871
tp3516
F640.49500704499792
s(I55
I83
tp3517
F267.72350231203143
s(I3
I896
tp3518
F882.09500717130902
s(I8
I566
tp3519
F718.50136537057119
s(I84
I107
tp3520
F1183.6131003055827
s(I11
I445
tp3521
F879.37276042691622
s(I13
I401
tp3522
F960.05008772881604
s(I289
I648
tp3523
F181.74489389557368
s(I259
I857
tp3524
F481.65148476529976
s(I283
I449
tp3525
F143.99250193723626
s(I218
I388
tp3526
F675.80259632433217
s(I181
I560
tp3527
F425.08575675758476
s(I94
I243
tp3528
F250.49085922154296
s(I6
I730
tp3529
F522.25490741267959
s(I23
I216
tp3530
F5498.8356910794773
s(I529
I681
tp3531
F205.78381785837166
s(I214
I578
tp3532
F268.77232881155959
s(I13
I482
tp3533
F1437.12301763908
s(I558
I773
tp3534
F229.30751924647268
s(I166
I593
tp3535
F211.85274970096486
s(I133
I267
tp3536
F259.4702356714439
s(I3
I276
tp3537
F1151.5898064504388
s(I60
I278
tp3538
F202.44492555263275
s(I81
I255
tp3539
F245.39477297129858
s(I64
I262
tp3540
F473.01834091873445
s(I45
I153
tp3541
F339.91297099780525
s(I20
I110
tp3542
F1780.123833115877
s(I185
I348
tp3543
F3271.86097502748
s(I131
I760
tp3544
F243.07832354943591
s(I156
I956
tp3545
F2090.5285427310514
s(I464
I741
tp3546
F81.669249351676314
s(I407
I607
tp3547
F626.71959067191301
s(I236
I354
tp3548
F1326.1341145447163
s(I583
I646
tp3549
F824.55494320006983
s(I221
I971
tp3550
F310.31491627764916
s(I94
I363
tp3551
F314.07664842149961
s(I22
I201
tp3552
F542.32839820752235
s(I225
I358
tp3553
F789.65891279203777
s(I232
I582
tp3554
F264.16968809945411
s(I529
I622
tp3555
F75.262010048774741
s(I270
I808
tp3556
F202.34352692645032
s(I162
I369
tp3557
F346.48103926651208
s(I237
I715
tp3558
F429.39094288774601
s(I25
I228
tp3559
F542.28244833779831
s(I161
I594
tp3560
F455.92620928482881
s(I57
I80
tp3561
F537.44405987770335
s(I370
I492
tp3562
F376.17474733969976
s(I6
I733
tp3563
F801.91538504887592
s(I176
I908
tp3564
F214.79393687600626
s(I141
I407
tp3565
F2879.8522184407607
s(I46
I50
tp3566
F420.41056699663613
s(I47
I160
tp3567
F215.51226728125459
s(I488
I682
tp3568
F110.64884089602513
s(I234
I271
tp3569
F207.45668522983809
s(I638
I784
tp3570
F262.36278591913464
s(I237
I604
tp3571
F939.55824709607157
s(I1
I499
tp3572
F11888.897368347547
s(I76
I913
tp3573
F4062.7477013256757
s(I96
I356
tp3574
F346.0423457920723
s(I41
I978
tp3575
F701.12520537682622
s(I28
I100
tp3576
F1493.1411405750268
s(I101
I919
tp3577
F269.93943483697325
s(I31
I203
tp3578
F389.95388987466265
s(I13
I364
tp3579
F773.92394133232267
s(I587
I753
tp3580
F110.30447167362875
s(I344
I573
tp3581
F266.43240333420061
s(I71
I367
tp3582
F2069.0662388130768
s(I606
I821
tp3583
F3744.1316024474258
s(I167
I238
tp3584
F215.57474221664259
s(I75
I508
tp3585
F114.91811165227337
s(I59
I729
tp3586
F353.07827053296683
s(I1
I984
tp3587
F559.14223553585646
s(I20
I30
tp3588
F1102.1201657924451
s(I155
I176
tp3589
F524.07714638732034
s(I345
I436
tp3590
F1598.6932119957189
s(I162
I194
tp3591
F363.55155516903972
s(I1
I554
tp3592
F1263.2315290564923
s(I559
I792
tp3593
F147.74997942180408
s(I718
I841
tp3594
F367.17849372373013
s(I296
I591
tp3595
F173.05030690221255
s(I518
I641
tp3596
F2129.4855323435918
s(I28
I926
tp3597
F764.76689693797846
s(I529
I615
tp3598
F108.77881379279962
s(I1
I912
tp3599
F931.17620017263823
s(I45
I520
tp3600
F438.96529569127568
s(I258
I663
tp3601
F243.8321644676133
s(I358
I619
tp3602
F531.38616980219933
s(I399
I829
tp3603
F295.40522774090545
s(I7
I112
tp3604
F799.88653921422167
s(I7
I575
tp3605
F10042.045387930821
s(I321
I348
tp3606
F1958.2407116011052
s(I12
I125
tp3607
F850.22600734216667
s(I450
I549
tp3608
F158.76528138940643
s(I16
I120
tp3609
F558.7170410628778
s(I548
I737
tp3610
F265.01258704043335
s(I264
I911
tp3611
F216.60700642042087
s(I458
I607
tp3612
F526.41955150983597
s(I187
I736
tp3613
F213.59993043341498
s(I170
I806
tp3614
F2441.1126468407274
s(I261
I485
tp3615
F212.37543872799884
s(I524
I603
tp3616
F171.7166048350025
s(I300
I397
tp3617
F602.17819060626891
s(I10
I595
tp3618
F1002.111557292174
s(I31
I613
tp3619
F647.27036803659666
s(I160
I370
tp3620
F491.88561721864608
s(I289
I303
tp3621
F175.67532680081177
s(I492
I677
tp3622
F309.68485423212178
s(I19
I130
tp3623
F3921.3646423078899
s(I310
I647
tp3624
F264.31090055569643
s(I3
I403
tp3625
F1023.4874263080352
s(I313
I852
tp3626
F503.05011579403532
s(I13
I73
tp3627
F2292.4680202572795
s(I81
I122
tp3628
F1920.436057158325
s(I273
I758
tp3629
F152.09974994129342
s(I7
I790
tp3630
F655.04181167958234
s(I11
I189
tp3631
F1872.3905215749619
s(I191
I384
tp3632
F277.16971854794798
s(I485
I794
tp3633
F101.48734038292864
s(I178
I545
tp3634
F238.51121101121092
s(I124
I440
tp3635
F291.1225729938115
s(I77
I390
tp3636
F615.86471970800619
s(I271
I941
tp3637
F345.78992010352289
s(I3
I109
tp3638
F1205.9902468158011
s(I71
I240
tp3639
F544.57787482282777
s(I41
I757
tp3640
F584.25137124443722
s(I357
I843
tp3641
F1092.7577901179386
s(I483
I884
tp3642
F212.33195399371868
s(I173
I293
tp3643
F274.5202704652703
s(I67
I373
tp3644
F282.14917219327634
s(I286
I732
tp3645
F411.98472953143164
s(I117
I543
tp3646
F605.12918185472802
s(I127
I407
tp3647
F3532.2290629007593
s(I91
I222
tp3648
F827.66006174786673
s(I1
I7
tp3649
F4459.5576072777512
s(I306
I883
tp3650
F335.59296958981685
s(I21
I76
tp3651
F3653.3501861130394
s(I147
I149
tp3652
F266.13078029216774
s(I293
I962
tp3653
F155.61533295279415
s(I26
I57
tp3654
F781.13999085090052
s(I778
I991
tp3655
F158.84934438203862
s(I466
I951
tp3656
F136.9818337096066
s(I189
I328
tp3657
F574.32055030149002
s(I51
I905
tp3658
F697.20539542226265
s(I196
I745
tp3659
F387.00455300463256
s(I602
I884
tp3660
F69.007639844233594
s(I19
I77
tp3661
F2044.2281968091672
s(I13
I172
tp3662
F2287.5358283279352
s(I44
I421
tp3663
F457.60755493613607
s(I17
I505
tp3664
F720.43075288084788
s(I131
I773
tp3665
F522.13636363636351
s(I28
I257
tp3666
F2142.9224734918312
s(I208
I214
tp3667
F272.75246700999963
s(I12
I203
tp3668
F584.11174095609533
s(I383
I867
tp3669
F120.70799718940133
s(I253
I718
tp3670
F112.46029976990712
s(I660
I903
tp3671
F2008.4854509506931
s(I100
I720
tp3672
F1166.2566603269256
s(I39
I438
tp3673
F303.91665250017172
s(I554
I642
tp3674
F163.14377008439027
s(I77
I118
tp3675
F551.63327760111906
s(I77
I641
tp3676
F9797.5335990951808
s(I98
I477
tp3677
F224.05856059296272
s(I580
I969
tp3678
F168.22151912388901
s(I272
I319
tp3679
F303.06101031187291
s(I16
I157
tp3680
F418.97444823642923
s(I122
I471
tp3681
F1063.5374217463877
s(I178
I984
tp3682
F307.17994478762392
s(I710
I769
tp3683
F161.39221881373601
s(I72
I181
tp3684
F390.93568295177386
s(I594
I605
tp3685
F1064.1033455686709
s(I381
I448
tp3686
F216.35481075919375
s(I402
I711
tp3687
F166.46763844022837
s(I117
I741
tp3688
F171.64800995554194
s(I209
I215
tp3689
F328.79787673268999
s(I507
I989
tp3690
F106.57133281638203
s(I436
I557
tp3691
F291.2884358012538
s(I94
I239
tp3692
F224.00888263467084
s(I3
I227
tp3693
F1579.5811803256242
s(I81
I647
tp3694
F373.43474864488786
s(I8
I673
tp3695
F931.60540126450314
s(I82
I421
tp3696
F473.59782104073633
s(I11
I732
tp3697
F1775.5659995078834
s(I11
I99
tp3698
F502.78547355109072
s(I13
I891
tp3699
F850.35869692582696
s(I168
I527
tp3700
F197.14489068619127
s(I52
I743
tp3701
F353.92431729776939
s(I721
I755
tp3702
F184.87782870473558
s(I348
I955
tp3703
F845.30428802264998
s(I24
I192
tp3704
F523.36713648778084
s(I258
I659
tp3705
F258.01538347623762
s(I5
I28
tp3706
F3949.7959538163082
s(I82
I154
tp3707
F279.36238386288034
s(I577
I993
tp3708
F605.85059204381707
s(I300
I387
tp3709
F633.54196146600941
s(I30
I44
tp3710
F423.08873738095821
s(I196
I359
tp3711
F350.26388395262939
s(I329
I756
tp3712
F226.36940886775886
s(I112
I137
tp3713
F116.14830946057724
s(I5
I429
tp3714
F835.59925617712292
s(I6
I53
tp3715
F831.49889832139797
s(I212
I679
tp3716
F1903.6852020661181
s(I251
I836
tp3717
F357.06551416046
s(I782
I800
tp3718
F4209.1182001379839
s(I15
I265
tp3719
F634.19801963203474
s(I448
I770
tp3720
F305.76459403885855
s(I6
I46
tp3721
F1698.4818790300105
s(I325
I506
tp3722
F188.42544167360811
s(I189
I518
tp3723
F1450.1903652974361
s(I464
I752
tp3724
F135.38502747373175
s(I270
I949
tp3725
F214.631174766415
s(I107
I610
tp3726
F495.04734223873436
s(I290
I820
tp3727
F194.43135615250361
s(I286
I616
tp3728
F1413.8265340470371
s(I22
I68
tp3729
F1433.4075214025152
s(I81
I835
tp3730
F322.46939707731855
s(I192
I842
tp3731
F145.72759810657169
s(I12
I106
tp3732
F539.69467897460731
s(I151
I969
tp3733
F99.067333105491016
s(I70
I879
tp3734
F14710.165442220636
s(I515
I654
tp3735
F3744.6259849333092
s(I2
I455
tp3736
F448.15194221561802
s(I149
I250
tp3737
F617.10999634733093
s(I173
I931
tp3738
F169.44011158430607
s(I64
I377
tp3739
F323.9140254195982
s(I391
I845
tp3740
F152.91674536083121
s(I432
I770
tp3741
F244.18046436134668
s(I37
I150
tp3742
F548.31052413330212
s(I342
I827
tp3743
F503.8642070434534
s(I124
I463
tp3744
F424.33284154699015
s(I71
I626
tp3745
F609.51222560410542
s(I851
I948
tp3746
F283.04363540475964
s(I191
I842
tp3747
F435.27629505126066
s(I28
I496
tp3748
F722.57805623771912
s(I51
I662
tp3749
F661.06645754279873
s(I368
I543
tp3750
F151.08757739683259
s(I22
I699
tp3751
F395.29181450938563
s(I22
I236
tp3752
F5536.1237439027009
s(I465
I961
tp3753
F548.4595166758221
s(I102
I532
tp3754
F2923.8333791409618
s(I195
I370
tp3755
F625.63756976740876
s(I215
I288
tp3756
F321.21787997933438
s(I560
I862
tp3757
F372.85194605725866
s(I162
I344
tp3758
F339.57068495593478
s(I550
I859
tp3759
F223.00077433542279
s(I184
I310
tp3760
F160.76410777497523
s(I3
I209
tp3761
F2350.1852897750427
s(I166
I655
tp3762
F406.32872268012261
s(I315
I374
tp3763
F183.84088167142818
s(I311
I607
tp3764
F594.25707432663114
s(I42
I815
tp3765
F489.3457258738145
s(I378
I443
tp3766
F176.62116925300509
s(I388
I712
tp3767
F603.14655639822195
s(I732
I866
tp3768
F2512.5791277775356
s(I219
I623
tp3769
F241.20594509381189
s(I75
I361
tp3770
F437.59504447871007
s(I149
I259
tp3771
F874.60510545627938
s(I759
I980
tp3772
F227.20192011848013
s(I92
I326
tp3773
F118.06523137515043
s(I154
I261
tp3774
F226.32559561256048
s(I873
I900
tp3775
F219.29337570239491
s(I13
I254
tp3776
F1918.3069336978201
s(I162
I709
tp3777
F8264.8814810395779
s(I15
I191
tp3778
F522.05209944273361
s(I3
I56
tp3779
F1292.1184730062496
s(I189
I744
tp3780
F192.49655789330737
s(I430
I978
tp3781
F150.82123163481754
s(I472
I613
tp3782
F102.73972875155614
s(I289
I420
tp3783
F155.14975041072205
s(I74
I79
tp3784
F299.09973355957538
s(I517
I953
tp3785
F422.76520102994618
s(I371
I597
tp3786
F203.04440423789401
s(I3
I73
tp3787
F2212.1330151339971
s(I496
I890
tp3788
F329.87532857406529
s(I7
I91
tp3789
F1298.2144617256156
s(I28
I71
tp3790
F2372.5959406468714
s(I49
I206
tp3791
F259.15384896380459
s(I51
I158
tp3792
F566.05355121983507
s(I15
I977
tp3793
F419.59267598617663
s(I160
I561
tp3794
F139.76929998122066
s(I509
I988
tp3795
F3395.2531272810534
s(I270
I322
tp3796
F277.41618014107689
s(I554
I580
tp3797
F174.32654341961097
s(I13
I241
tp3798
F1923.930422250982
s(I328
I453
tp3799
F531.06767747731556
s(I44
I71
tp3800
F610.62808508551007
s(I121
I639
tp3801
F1304.1809825849668
s(I601
I633
tp3802
F315.34552919164258
s(I107
I410
tp3803
F409.64121240194055
s(I126
I138
tp3804
F912.28873806619663
s(I154
I665
tp3805
F362.93856506689707
s(I2
I591
tp3806
F664.28811836837076
s(I149
I849
tp3807
F232.82528419293121
s(I3
I826
tp3808
F1134.3607690738852
s(I8
I912
tp3809
F717.86737122002
s(I26
I467
tp3810
F1178.2881450173456
s(I300
I803
tp3811
F492.16558779171964
s(I119
I121
tp3812
F129.38732719688477
s(I70
I445
tp3813
F469.08011952000265
s(I427
I797
tp3814
F1214.5520064777352
s(I93
I265
tp3815
F590.41242080652523
s(I20
I31
tp3816
F2340.7180534284184
s(I3
I33
tp3817
F908.08900663030761
s(I24
I741
tp3818
F310.78586713928797
s(I3
I843
tp3819
F2313.4911994818326
s(I270
I979
tp3820
F297.24547411264683
s(I78
I710
tp3821
F199.80804906214615
s(I120
I665
tp3822
F562.93840551076903
s(I7
I10
tp3823
F2598.8493402916897
s(I601
I795
tp3824
F247.56110567368168
s(I314
I592
tp3825
F123.60135225481523
s(I17
I141
tp3826
F2457.7357758511798
s(I328
I427
tp3827
F2648.0694143525393
s(I313
I567
tp3828
F320.838670384544
s(I77
I566
tp3829
F377.64719103281232
s(I152
I318
tp3830
F4493.2491432343695
s(I423
I526
tp3831
F272.91199894463233
s(I209
I307
tp3832
F6311.2870152329187
s(I282
I920
tp3833
F658.86116322388523
s(I679
I787
tp3834
F119.33783132052626
s(I175
I771
tp3835
F381.06650635557315
s(I17
I896
tp3836
F511.01278706131251
s(I182
I911
tp3837
F637.06006965444112
s(I218
I636
tp3838
F400.06859123578795
s(I199
I562
tp3839
F1000.1652603419678
s(I497
I565
tp3840
F264.18378194732685
s(I151
I725
tp3841
F180.24900771038679
s(I29
I654
tp3842
F9661.7524867490138
s(I171
I852
tp3843
F323.57444079460441
s(I199
I937
tp3844
F635.05997923295922
s(I161
I980
tp3845
F303.90615759098267
s(I54
I702
tp3846
F787.62988957853133
s(I718
I924
tp3847
F253.53258050905254
s(I77
I130
tp3848
F2771.6217186354133
s(I24
I50
tp3849
F293.6156556875361
s(I8
I300
tp3850
F3358.9027465521049
s(I176
I189
tp3851
F436.87603758370921
s(I10
I77
tp3852
F2855.3865118978724
s(I365
I780
tp3853
F180.43517350452359
s(I17
I863
tp3854
F1105.1217109714182
s(I306
I391
tp3855
F382.74306771883829
s(I0
I553
tp3856
F1643.5213650524654
s(I272
I379
tp3857
F2108.3699690041121
s(I69
I735
tp3858
F563.29849186620152
s(I458
I500
tp3859
F217.7554010345805
s(I3
I38
tp3860
F2046.9285085097654
s(I93
I345
tp3861
F4319.9487105829976
s(I591
I996
tp3862
F88.988811609194343
s(I189
I697
tp3863
F382.94693146831605
s(I9
I343
tp3864
F748.24578946270685
s(I462
I759
tp3865
F460.25707666947272
s(I11
I934
tp3866
F890.32521111470555
s(I472
I626
tp3867
F148.51287640483091
s(I4
I754
tp3868
F850.88752712616349
s(I452
I456
tp3869
F305.14942846187563
s(I245
I488
tp3870
F888.5677292538021
s(I249
I442
tp3871
F748.54440931024135
s(I201
I994
tp3872
F190.43233563821795
s(I466
I669
tp3873
F471.631945517014
s(I670
I938
tp3874
F2579.6695474929975
s(I4
I129
tp3875
F2572.4383724641702
s(I252
I398
tp3876
F270.22953088537616
s(I182
I902
tp3877
F449.85103292157197
s(I92
I635
tp3878
F795.82054893075906
s(I8
I100
tp3879
F1815.9512112845634
s(I98
I145
tp3880
F247.36238264522726
s(I25
I887
tp3881
F600.46064747429057
s(I617
I781
tp3882
F245.46918697541358
s(I62
I865
tp3883
F413.8836926088789
s(I28
I196
tp3884
F931.55148754140475
s(I121
I734
tp3885
F145.64504204945382
s(I14
I85
tp3886
F1053.6684061840708
s(I13
I152
tp3887
F3984.3216052216862
s(I52
I149
tp3888
F454.10018468749263
s(I71
I166
tp3889
F444.05857272076719
s(I182
I378
tp3890
F415.14657604293274
s(I19
I82
tp3891
F455.06359106356786
s(I75
I758
tp3892
F262.04926090745761
s(I351
I472
tp3893
F178.40613846539355
s(I315
I522
tp3894
F215.1738080761007
s(I7
I261
tp3895
F583.87096258963845
s(I178
I305
tp3896
F199.84804050102761
s(I32
I457
tp3897
F373.22919301137097
s(I31
I131
tp3898
F1484.2987264094854
s(I250
I372
tp3899
F435.93222895408894
s(I347
I576
tp3900
F306.48280512553822
s(I141
I838
tp3901
F8655.1570570255226
s(I21
I783
tp3902
F644.26224815454987
s(I6
I8
tp3903
F3108.729558333021
s(I32
I616
tp3904
F5518.0731073243542
s(I356
I673
tp3905
F202.92425983356986
s(I85
I188
tp3906
F2555.8998400985402
s(I61
I723
tp3907
F462.59352147763462
s(I13
I122
tp3908
F9442.7804468241266
s(I959
I982
tp3909
F169.01231040201625
s(I237
I763
tp3910
F372.27364458315787
s(I189
I286
tp3911
F487.61614147844358
s(I75
I897
tp3912
F206.83470623072884
s(I3
I966
tp3913
F802.81785028764091
s(I26
I199
tp3914
F1526.5700227559207
s(I281
I373
tp3915
F322.71530605461754
s(I43
I429
tp3916
F732.0422567173249
s(I1
I17
tp3917
F5575.8743232138713
s(I436
I927
tp3918
F331.79771575363679
s(I30
I301
tp3919
F714.70152753856757
s(I141
I901
tp3920
F326.5436330894301
s(I199
I398
tp3921
F613.62653405395849
s(I21
I123
tp3922
F1925.5350956063903
s(I3
I640
tp3923
F687.49756278467964
s(I207
I899
tp3924
F1059.9792588819114
s(I46
I310
tp3925
F554.19828501989605
s(I350
I446
tp3926
F158.77241598554448
s(I9
I22
tp3927
F3780.7494935270615
s(I4
I130
tp3928
F8407.0106563512618
s(I48
I636
tp3929
F365.18509476034569
s(I32
I337
tp3930
F522.47621458274659
s(I529
I885
tp3931
F211.57556232841358
s(I51
I98
tp3932
F959.54592331170124
s(I660
I812
tp3933
F133.72130806439949
s(I299
I402
tp3934
F160.9685073104971
s(I57
I335
tp3935
F268.07702940805785
s(I720
I869
tp3936
F1371.729825406941
s(I422
I625
tp3937
F295.55967174644172
s(I4
I340
tp3938
F1137.1595209588356
s(I78
I247
tp3939
F4973.9803497787225
s(I779
I882
tp3940
F157.70347538065053
s(I462
I779
tp3941
F411.22949084478176
s(I15
I796
tp3942
F722.79355832510976
s(I67
I98
tp3943
F232.47266183815466
s(I32
I885
tp3944
F600.27644427178336
s(I70
I520
tp3945
F490.60912444562911
s(I52
I962
tp3946
F312.38919789213531
s(I195
I723
tp3947
F427.35380877292664
s(I3
I20
tp3948
F1964.0699814683217
s(I230
I720
tp3949
F1653.5241766546087
s(I463
I957
tp3950
F169.3269138269138
s(I323
I838
tp3951
F4188.2058406686929
s(I127
I204
tp3952
F303.41806781404767
s(I362
I992
tp3953
F177.32036939668515
s(I184
I362
tp3954
F205.31997946907796
s(I314
I722
tp3955
F144.42670840810223
s(I56
I592
tp3956
F189.11932988391592
s(I232
I396
tp3957
F3565.7580456095616
s(I323
I983
tp3958
F262.5999719235013
s(I470
I922
tp3959
F301.39463137704968
s(I17
I446
tp3960
F812.76791108232442
s(I297
I544
tp3961
F252.0147666334866
s(I2
I119
tp3962
F383.53301049489914
s(I58
I452
tp3963
F1232.9784323198712
s(I277
I319
tp3964
F219.26908624700522
s(I388
I665
tp3965
F474.71541174669039
s(I61
I472
tp3966
F301.28231192716891
s(I120
I321
tp3967
F353.67441205780875
s(I28
I218
tp3968
F1835.7715964847914
s(I527
I816
tp3969
F206.88753432367852
s(I80
I307
tp3970
F6415.5106231232758
s(I306
I874
tp3971
F407.82768287655102
s(I54
I244
tp3972
F2854.3716972466018
s(I113
I520
tp3973
F410.6934790948178
s(I113
I486
tp3974
F510.41985819074233
s(I298
I682
tp3975
F144.41342309865956
s(I3
I145
tp3976
F2106.3351859994127
s(I10
I102
tp3977
F761.9010618066568
s(I506
I969
tp3978
F155.28228501884348
s(I452
I525
tp3979
F2871.0699339064413
s(I1
I166
tp3980
F1028.626968339742
s(I126
I127
tp3981
F1975.4246438863008
s(I201
I707
tp3982
F235.11539743814609
s(I207
I229
tp3983
F1036.9612428017283
s(I615
I680
tp3984
F102.72432751511356
s(I374
I382
tp3985
F110.46301724050382
s.